
pix86:     file format elf64-x86-64


Disassembly of section .init:

0000000000002000 <_init>:
    2000:	f3 0f 1e fa          	endbr64 
    2004:	48 83 ec 08          	sub    $0x8,%rsp
    2008:	48 8b 05 d1 6f 01 00 	mov    0x16fd1(%rip),%rax        # 18fe0 <__gmon_start__@Base>
    200f:	48 85 c0             	test   %rax,%rax
    2012:	74 02                	je     2016 <_init+0x16>
    2014:	ff d0                	call   *%rax
    2016:	48 83 c4 08          	add    $0x8,%rsp
    201a:	c3                   	ret    

Disassembly of section .plt:

0000000000002020 <_Znam@plt-0x10>:
    2020:	ff 35 e2 6f 01 00    	push   0x16fe2(%rip)        # 19008 <_GLOBAL_OFFSET_TABLE_+0x8>
    2026:	ff 25 e4 6f 01 00    	jmp    *0x16fe4(%rip)        # 19010 <_GLOBAL_OFFSET_TABLE_+0x10>
    202c:	0f 1f 40 00          	nopl   0x0(%rax)

0000000000002030 <_Znam@plt>:
    2030:	ff 25 e2 6f 01 00    	jmp    *0x16fe2(%rip)        # 19018 <_Znam@GLIBCXX_3.4>
    2036:	68 00 00 00 00       	push   $0x0
    203b:	e9 e0 ff ff ff       	jmp    2020 <_init+0x20>

0000000000002040 <_ZNSo3putEc@plt>:
    2040:	ff 25 da 6f 01 00    	jmp    *0x16fda(%rip)        # 19020 <_ZNSo3putEc@GLIBCXX_3.4>
    2046:	68 01 00 00 00       	push   $0x1
    204b:	e9 d0 ff ff ff       	jmp    2020 <_init+0x20>

0000000000002050 <fmodl@plt>:
    2050:	ff 25 d2 6f 01 00    	jmp    *0x16fd2(%rip)        # 19028 <fmodl@GLIBC_2.2.5>
    2056:	68 02 00 00 00       	push   $0x2
    205b:	e9 c0 ff ff ff       	jmp    2020 <_init+0x20>

0000000000002060 <truncl@plt>:
    2060:	ff 25 ca 6f 01 00    	jmp    *0x16fca(%rip)        # 19030 <truncl@GLIBC_2.2.5>
    2066:	68 03 00 00 00       	push   $0x3
    206b:	e9 b0 ff ff ff       	jmp    2020 <_init+0x20>

0000000000002070 <_ZSt9terminatev@plt>:
    2070:	ff 25 c2 6f 01 00    	jmp    *0x16fc2(%rip)        # 19038 <_ZSt9terminatev@GLIBCXX_3.4>
    2076:	68 04 00 00 00       	push   $0x4
    207b:	e9 a0 ff ff ff       	jmp    2020 <_init+0x20>

0000000000002080 <_ZNSt8ios_baseD2Ev@plt>:
    2080:	ff 25 ba 6f 01 00    	jmp    *0x16fba(%rip)        # 19040 <_ZNSt8ios_baseD2Ev@GLIBCXX_3.4>
    2086:	68 05 00 00 00       	push   $0x5
    208b:	e9 90 ff ff ff       	jmp    2020 <_init+0x20>

0000000000002090 <__cxa_begin_catch@plt>:
    2090:	ff 25 b2 6f 01 00    	jmp    *0x16fb2(%rip)        # 19048 <__cxa_begin_catch@CXXABI_1.3>
    2096:	68 06 00 00 00       	push   $0x6
    209b:	e9 80 ff ff ff       	jmp    2020 <_init+0x20>

00000000000020a0 <exp2l@plt>:
    20a0:	ff 25 aa 6f 01 00    	jmp    *0x16faa(%rip)        # 19050 <exp2l@GLIBC_2.2.5>
    20a6:	68 07 00 00 00       	push   $0x7
    20ab:	e9 70 ff ff ff       	jmp    2020 <_init+0x20>

00000000000020b0 <__cxa_allocate_exception@plt>:
    20b0:	ff 25 a2 6f 01 00    	jmp    *0x16fa2(%rip)        # 19058 <__cxa_allocate_exception@CXXABI_1.3>
    20b6:	68 08 00 00 00       	push   $0x8
    20bb:	e9 60 ff ff ff       	jmp    2020 <_init+0x20>

00000000000020c0 <logl@plt>:
    20c0:	ff 25 9a 6f 01 00    	jmp    *0x16f9a(%rip)        # 19060 <logl@GLIBC_2.2.5>
    20c6:	68 09 00 00 00       	push   $0x9
    20cb:	e9 50 ff ff ff       	jmp    2020 <_init+0x20>

00000000000020d0 <_ZSt20__throw_length_errorPKc@plt>:
    20d0:	ff 25 92 6f 01 00    	jmp    *0x16f92(%rip)        # 19068 <_ZSt20__throw_length_errorPKc@GLIBCXX_3.4>
    20d6:	68 0a 00 00 00       	push   $0xa
    20db:	e9 40 ff ff ff       	jmp    2020 <_init+0x20>

00000000000020e0 <tanl@plt>:
    20e0:	ff 25 8a 6f 01 00    	jmp    *0x16f8a(%rip)        # 19070 <tanl@GLIBC_2.2.5>
    20e6:	68 0b 00 00 00       	push   $0xb
    20eb:	e9 30 ff ff ff       	jmp    2020 <_init+0x20>

00000000000020f0 <__cxa_guard_abort@plt>:
    20f0:	ff 25 82 6f 01 00    	jmp    *0x16f82(%rip)        # 19078 <__cxa_guard_abort@CXXABI_1.3>
    20f6:	68 0c 00 00 00       	push   $0xc
    20fb:	e9 20 ff ff ff       	jmp    2020 <_init+0x20>

0000000000002100 <_ZNSt12domain_errorC1EPKc@plt>:
    2100:	ff 25 7a 6f 01 00    	jmp    *0x16f7a(%rip)        # 19080 <_ZNSt12domain_errorC1EPKc@GLIBCXX_3.4.21>
    2106:	68 0d 00 00 00       	push   $0xd
    210b:	e9 10 ff ff ff       	jmp    2020 <_init+0x20>

0000000000002110 <__cxa_guard_release@plt>:
    2110:	ff 25 72 6f 01 00    	jmp    *0x16f72(%rip)        # 19088 <__cxa_guard_release@CXXABI_1.3>
    2116:	68 0e 00 00 00       	push   $0xe
    211b:	e9 00 ff ff ff       	jmp    2020 <_init+0x20>

0000000000002120 <__assert_fail@plt>:
    2120:	ff 25 6a 6f 01 00    	jmp    *0x16f6a(%rip)        # 19090 <__assert_fail@GLIBC_2.2.5>
    2126:	68 0f 00 00 00       	push   $0xf
    212b:	e9 f0 fe ff ff       	jmp    2020 <_init+0x20>

0000000000002130 <log10l@plt>:
    2130:	ff 25 62 6f 01 00    	jmp    *0x16f62(%rip)        # 19098 <log10l@GLIBC_2.2.5>
    2136:	68 10 00 00 00       	push   $0x10
    213b:	e9 e0 fe ff ff       	jmp    2020 <_init+0x20>

0000000000002140 <_ZNSt7__cxx1118basic_stringstreamIcSt11char_traitsIcESaIcEEC1Ev@plt>:
    2140:	ff 25 5a 6f 01 00    	jmp    *0x16f5a(%rip)        # 190a0 <_ZNSt7__cxx1118basic_stringstreamIcSt11char_traitsIcESaIcEEC1Ev@GLIBCXX_3.4.26>
    2146:	68 11 00 00 00       	push   $0x11
    214b:	e9 d0 fe ff ff       	jmp    2020 <_init+0x20>

0000000000002150 <_ZSt19__throw_logic_errorPKc@plt>:
    2150:	ff 25 52 6f 01 00    	jmp    *0x16f52(%rip)        # 190a8 <_ZSt19__throw_logic_errorPKc@GLIBCXX_3.4>
    2156:	68 12 00 00 00       	push   $0x12
    215b:	e9 c0 fe ff ff       	jmp    2020 <_init+0x20>

0000000000002160 <__cxa_free_exception@plt>:
    2160:	ff 25 4a 6f 01 00    	jmp    *0x16f4a(%rip)        # 190b0 <__cxa_free_exception@CXXABI_1.3>
    2166:	68 13 00 00 00       	push   $0x13
    216b:	e9 b0 fe ff ff       	jmp    2020 <_init+0x20>

0000000000002170 <_ZNSt7__cxx1118basic_stringstreamIcSt11char_traitsIcESaIcEED1Ev@plt>:
    2170:	ff 25 42 6f 01 00    	jmp    *0x16f42(%rip)        # 190b8 <_ZNSt7__cxx1118basic_stringstreamIcSt11char_traitsIcESaIcEED1Ev@GLIBCXX_3.4.21>
    2176:	68 14 00 00 00       	push   $0x14
    217b:	e9 a0 fe ff ff       	jmp    2020 <_init+0x20>

0000000000002180 <memcpy@plt>:
    2180:	ff 25 3a 6f 01 00    	jmp    *0x16f3a(%rip)        # 190c0 <memcpy@GLIBC_2.14>
    2186:	68 15 00 00 00       	push   $0x15
    218b:	e9 90 fe ff ff       	jmp    2020 <_init+0x20>

0000000000002190 <roundl@plt>:
    2190:	ff 25 32 6f 01 00    	jmp    *0x16f32(%rip)        # 190c8 <roundl@GLIBC_2.2.5>
    2196:	68 16 00 00 00       	push   $0x16
    219b:	e9 80 fe ff ff       	jmp    2020 <_init+0x20>

00000000000021a0 <__cxa_atexit@plt>:
    21a0:	ff 25 2a 6f 01 00    	jmp    *0x16f2a(%rip)        # 190d0 <__cxa_atexit@GLIBC_2.2.5>
    21a6:	68 17 00 00 00       	push   $0x17
    21ab:	e9 70 fe ff ff       	jmp    2020 <_init+0x20>

00000000000021b0 <_ZdlPv@plt>:
    21b0:	ff 25 22 6f 01 00    	jmp    *0x16f22(%rip)        # 190d8 <_ZdlPv@GLIBCXX_3.4>
    21b6:	68 18 00 00 00       	push   $0x18
    21bb:	e9 60 fe ff ff       	jmp    2020 <_init+0x20>

00000000000021c0 <_Znwm@plt>:
    21c0:	ff 25 1a 6f 01 00    	jmp    *0x16f1a(%rip)        # 190e0 <_Znwm@GLIBCXX_3.4>
    21c6:	68 19 00 00 00       	push   $0x19
    21cb:	e9 50 fe ff ff       	jmp    2020 <_init+0x20>

00000000000021d0 <_ZSt16__ostream_insertIcSt11char_traitsIcEERSt13basic_ostreamIT_T0_ES6_PKS3_l@plt>:
    21d0:	ff 25 12 6f 01 00    	jmp    *0x16f12(%rip)        # 190e8 <_ZSt16__ostream_insertIcSt11char_traitsIcEERSt13basic_ostreamIT_T0_ES6_PKS3_l@GLIBCXX_3.4.9>
    21d6:	68 1a 00 00 00       	push   $0x1a
    21db:	e9 40 fe ff ff       	jmp    2020 <_init+0x20>

00000000000021e0 <cosl@plt>:
    21e0:	ff 25 0a 6f 01 00    	jmp    *0x16f0a(%rip)        # 190f0 <cosl@GLIBC_2.2.5>
    21e6:	68 1b 00 00 00       	push   $0x1b
    21eb:	e9 30 fe ff ff       	jmp    2020 <_init+0x20>

00000000000021f0 <_ZNSt12domain_errorC1ERKNSt7__cxx1112basic_stringIcSt11char_traitsIcESaIcEEE@plt>:
    21f0:	ff 25 02 6f 01 00    	jmp    *0x16f02(%rip)        # 190f8 <_ZNSt12domain_errorC1ERKNSt7__cxx1112basic_stringIcSt11char_traitsIcESaIcEEE@GLIBCXX_3.4.21>
    21f6:	68 1c 00 00 00       	push   $0x1c
    21fb:	e9 20 fe ff ff       	jmp    2020 <_init+0x20>

0000000000002200 <_ZdaPv@plt>:
    2200:	ff 25 fa 6e 01 00    	jmp    *0x16efa(%rip)        # 19100 <_ZdaPv@GLIBCXX_3.4>
    2206:	68 1d 00 00 00       	push   $0x1d
    220b:	e9 10 fe ff ff       	jmp    2020 <_init+0x20>

0000000000002210 <_ZNSt6localeD1Ev@plt>:
    2210:	ff 25 f2 6e 01 00    	jmp    *0x16ef2(%rip)        # 19108 <_ZNSt6localeD1Ev@GLIBCXX_3.4>
    2216:	68 1e 00 00 00       	push   $0x1e
    221b:	e9 00 fe ff ff       	jmp    2020 <_init+0x20>

0000000000002220 <sqrtl@plt>:
    2220:	ff 25 ea 6e 01 00    	jmp    *0x16eea(%rip)        # 19110 <sqrtl@GLIBC_2.2.5>
    2226:	68 1f 00 00 00       	push   $0x1f
    222b:	e9 f0 fd ff ff       	jmp    2020 <_init+0x20>

0000000000002230 <_ZNSt11logic_errorC1EPKc@plt>:
    2230:	ff 25 e2 6e 01 00    	jmp    *0x16ee2(%rip)        # 19118 <_ZNSt11logic_errorC1EPKc@GLIBCXX_3.4.21>
    2236:	68 20 00 00 00       	push   $0x20
    223b:	e9 e0 fd ff ff       	jmp    2020 <_init+0x20>

0000000000002240 <_ZNSt11logic_errorC1ERKNSt7__cxx1112basic_stringIcSt11char_traitsIcESaIcEEE@plt>:
    2240:	ff 25 da 6e 01 00    	jmp    *0x16eda(%rip)        # 19120 <_ZNSt11logic_errorC1ERKNSt7__cxx1112basic_stringIcSt11char_traitsIcESaIcEEE@GLIBCXX_3.4.21>
    2246:	68 21 00 00 00       	push   $0x21
    224b:	e9 d0 fd ff ff       	jmp    2020 <_init+0x20>

0000000000002250 <_ZSt24__throw_out_of_range_fmtPKcz@plt>:
    2250:	ff 25 d2 6e 01 00    	jmp    *0x16ed2(%rip)        # 19128 <_ZSt24__throw_out_of_range_fmtPKcz@GLIBCXX_3.4.20>
    2256:	68 22 00 00 00       	push   $0x22
    225b:	e9 c0 fd ff ff       	jmp    2020 <_init+0x20>

0000000000002260 <_ZStlsISt11char_traitsIcEERSt13basic_ostreamIcT_ES5_h@plt>:
    2260:	ff 25 ca 6e 01 00    	jmp    *0x16eca(%rip)        # 19130 <_ZStlsISt11char_traitsIcEERSt13basic_ostreamIcT_ES5_h@GLIBCXX_3.4>
    2266:	68 23 00 00 00       	push   $0x23
    226b:	e9 b0 fd ff ff       	jmp    2020 <_init+0x20>

0000000000002270 <sinl@plt>:
    2270:	ff 25 c2 6e 01 00    	jmp    *0x16ec2(%rip)        # 19138 <sinl@GLIBC_2.2.5>
    2276:	68 24 00 00 00       	push   $0x24
    227b:	e9 a0 fd ff ff       	jmp    2020 <_init+0x20>

0000000000002280 <_ZNSt8ios_base4InitC1Ev@plt>:
    2280:	ff 25 ba 6e 01 00    	jmp    *0x16eba(%rip)        # 19140 <_ZNSt8ios_base4InitC1Ev@GLIBCXX_3.4>
    2286:	68 25 00 00 00       	push   $0x25
    228b:	e9 90 fd ff ff       	jmp    2020 <_init+0x20>

0000000000002290 <frexpl@plt>:
    2290:	ff 25 b2 6e 01 00    	jmp    *0x16eb2(%rip)        # 19148 <frexpl@GLIBC_2.2.5>
    2296:	68 26 00 00 00       	push   $0x26
    229b:	e9 80 fd ff ff       	jmp    2020 <_init+0x20>

00000000000022a0 <__cxa_end_catch@plt>:
    22a0:	ff 25 aa 6e 01 00    	jmp    *0x16eaa(%rip)        # 19150 <__cxa_end_catch@CXXABI_1.3>
    22a6:	68 27 00 00 00       	push   $0x27
    22ab:	e9 70 fd ff ff       	jmp    2020 <_init+0x20>

00000000000022b0 <atanl@plt>:
    22b0:	ff 25 a2 6e 01 00    	jmp    *0x16ea2(%rip)        # 19158 <atanl@GLIBC_2.2.5>
    22b6:	68 28 00 00 00       	push   $0x28
    22bb:	e9 60 fd ff ff       	jmp    2020 <_init+0x20>

00000000000022c0 <__cxa_throw@plt>:
    22c0:	ff 25 9a 6e 01 00    	jmp    *0x16e9a(%rip)        # 19160 <__cxa_throw@CXXABI_1.3>
    22c6:	68 29 00 00 00       	push   $0x29
    22cb:	e9 50 fd ff ff       	jmp    2020 <_init+0x20>

00000000000022d0 <_Unwind_Resume@plt>:
    22d0:	ff 25 92 6e 01 00    	jmp    *0x16e92(%rip)        # 19168 <_Unwind_Resume@GCC_3.0>
    22d6:	68 2a 00 00 00       	push   $0x2a
    22db:	e9 40 fd ff ff       	jmp    2020 <_init+0x20>

00000000000022e0 <__cxa_guard_acquire@plt>:
    22e0:	ff 25 8a 6e 01 00    	jmp    *0x16e8a(%rip)        # 19170 <__cxa_guard_acquire@CXXABI_1.3>
    22e6:	68 2b 00 00 00       	push   $0x2b
    22eb:	e9 30 fd ff ff       	jmp    2020 <_init+0x20>

00000000000022f0 <_ZNKRSt7__cxx1118basic_stringstreamIcSt11char_traitsIcESaIcEE3strEv@plt>:
    22f0:	ff 25 82 6e 01 00    	jmp    *0x16e82(%rip)        # 19178 <_ZNKRSt7__cxx1118basic_stringstreamIcSt11char_traitsIcESaIcEE3strEv@GLIBCXX_3.4.29>
    22f6:	68 2c 00 00 00       	push   $0x2c
    22fb:	e9 20 fd ff ff       	jmp    2020 <_init+0x20>

0000000000002300 <log2l@plt>:
    2300:	ff 25 7a 6e 01 00    	jmp    *0x16e7a(%rip)        # 19180 <log2l@GLIBC_2.2.5>
    2306:	68 2d 00 00 00       	push   $0x2d
    230b:	e9 10 fd ff ff       	jmp    2020 <_init+0x20>

Disassembly of section .plt.got:

0000000000002310 <__cxa_finalize@plt>:
    2310:	ff 25 8a 6c 01 00    	jmp    *0x16c8a(%rip)        # 18fa0 <__cxa_finalize@GLIBC_2.2.5>
    2316:	66 90                	xchg   %ax,%ax

Disassembly of section .text:

0000000000002320 <_GLOBAL__sub_I_executor.cc>:
    2320:	53                   	push   %rbx
    2321:	48 8d 1d 89 6e 01 00 	lea    0x16e89(%rip),%rbx        # 191b1 <_ZStL8__ioinit>
    2328:	48 89 df             	mov    %rbx,%rdi
    232b:	e8 50 ff ff ff       	call   2280 <_ZNSt8ios_base4InitC1Ev@plt>
    2330:	48 8b 3d c1 6c 01 00 	mov    0x16cc1(%rip),%rdi        # 18ff8 <_ZNSt8ios_base4InitD1Ev@GLIBCXX_3.4>
    2337:	48 8d 15 52 6e 01 00 	lea    0x16e52(%rip),%rdx        # 19190 <__dso_handle>
    233e:	48 89 de             	mov    %rbx,%rsi
    2341:	5b                   	pop    %rbx
    2342:	e9 59 fe ff ff       	jmp    21a0 <__cxa_atexit@plt>
    2347:	66 0f 1f 84 00 00 00 	nopw   0x0(%rax,%rax,1)
    234e:	00 00 

0000000000002350 <__cxx_global_array_dtor>:
    2350:	50                   	push   %rax
    2351:	48 8b 3d 58 6f 01 00 	mov    0x16f58(%rip),%rdi        # 192b0 <_ZZ7reg_strB5cxx11jE11reg_stringsB5cxx11+0xe0>
    2358:	48 8d 05 61 6f 01 00 	lea    0x16f61(%rip),%rax        # 192c0 <_ZZ7reg_strB5cxx11jE11reg_stringsB5cxx11+0xf0>
    235f:	48 39 c7             	cmp    %rax,%rdi
    2362:	74 05                	je     2369 <__cxx_global_array_dtor+0x19>
    2364:	e8 47 fe ff ff       	call   21b0 <_ZdlPv@plt>
    2369:	48 8b 3d 20 6f 01 00 	mov    0x16f20(%rip),%rdi        # 19290 <_ZZ7reg_strB5cxx11jE11reg_stringsB5cxx11+0xc0>
    2370:	48 8d 05 29 6f 01 00 	lea    0x16f29(%rip),%rax        # 192a0 <_ZZ7reg_strB5cxx11jE11reg_stringsB5cxx11+0xd0>
    2377:	48 39 c7             	cmp    %rax,%rdi
    237a:	74 05                	je     2381 <__cxx_global_array_dtor+0x31>
    237c:	e8 2f fe ff ff       	call   21b0 <_ZdlPv@plt>
    2381:	48 8b 3d e8 6e 01 00 	mov    0x16ee8(%rip),%rdi        # 19270 <_ZZ7reg_strB5cxx11jE11reg_stringsB5cxx11+0xa0>
    2388:	48 8d 05 f1 6e 01 00 	lea    0x16ef1(%rip),%rax        # 19280 <_ZZ7reg_strB5cxx11jE11reg_stringsB5cxx11+0xb0>
    238f:	48 39 c7             	cmp    %rax,%rdi
    2392:	74 05                	je     2399 <__cxx_global_array_dtor+0x49>
    2394:	e8 17 fe ff ff       	call   21b0 <_ZdlPv@plt>
    2399:	48 8b 3d b0 6e 01 00 	mov    0x16eb0(%rip),%rdi        # 19250 <_ZZ7reg_strB5cxx11jE11reg_stringsB5cxx11+0x80>
    23a0:	48 8d 05 b9 6e 01 00 	lea    0x16eb9(%rip),%rax        # 19260 <_ZZ7reg_strB5cxx11jE11reg_stringsB5cxx11+0x90>
    23a7:	48 39 c7             	cmp    %rax,%rdi
    23aa:	74 05                	je     23b1 <__cxx_global_array_dtor+0x61>
    23ac:	e8 ff fd ff ff       	call   21b0 <_ZdlPv@plt>
    23b1:	48 8b 3d 78 6e 01 00 	mov    0x16e78(%rip),%rdi        # 19230 <_ZZ7reg_strB5cxx11jE11reg_stringsB5cxx11+0x60>
    23b8:	48 8d 05 81 6e 01 00 	lea    0x16e81(%rip),%rax        # 19240 <_ZZ7reg_strB5cxx11jE11reg_stringsB5cxx11+0x70>
    23bf:	48 39 c7             	cmp    %rax,%rdi
    23c2:	74 05                	je     23c9 <__cxx_global_array_dtor+0x79>
    23c4:	e8 e7 fd ff ff       	call   21b0 <_ZdlPv@plt>
    23c9:	48 8b 3d 40 6e 01 00 	mov    0x16e40(%rip),%rdi        # 19210 <_ZZ7reg_strB5cxx11jE11reg_stringsB5cxx11+0x40>
    23d0:	48 8d 05 49 6e 01 00 	lea    0x16e49(%rip),%rax        # 19220 <_ZZ7reg_strB5cxx11jE11reg_stringsB5cxx11+0x50>
    23d7:	48 39 c7             	cmp    %rax,%rdi
    23da:	74 05                	je     23e1 <__cxx_global_array_dtor+0x91>
    23dc:	e8 cf fd ff ff       	call   21b0 <_ZdlPv@plt>
    23e1:	48 8b 3d 08 6e 01 00 	mov    0x16e08(%rip),%rdi        # 191f0 <_ZZ7reg_strB5cxx11jE11reg_stringsB5cxx11+0x20>
    23e8:	48 8d 05 11 6e 01 00 	lea    0x16e11(%rip),%rax        # 19200 <_ZZ7reg_strB5cxx11jE11reg_stringsB5cxx11+0x30>
    23ef:	48 39 c7             	cmp    %rax,%rdi
    23f2:	74 05                	je     23f9 <__cxx_global_array_dtor+0xa9>
    23f4:	e8 b7 fd ff ff       	call   21b0 <_ZdlPv@plt>
    23f9:	48 8b 3d d0 6d 01 00 	mov    0x16dd0(%rip),%rdi        # 191d0 <_ZZ7reg_strB5cxx11jE11reg_stringsB5cxx11>
    2400:	48 8d 05 d9 6d 01 00 	lea    0x16dd9(%rip),%rax        # 191e0 <_ZZ7reg_strB5cxx11jE11reg_stringsB5cxx11+0x10>
    2407:	48 39 c7             	cmp    %rax,%rdi
    240a:	74 06                	je     2412 <__cxx_global_array_dtor+0xc2>
    240c:	58                   	pop    %rax
    240d:	e9 9e fd ff ff       	jmp    21b0 <_ZdlPv@plt>
    2412:	58                   	pop    %rax
    2413:	c3                   	ret    
    2414:	66 2e 0f 1f 84 00 00 	cs nopw 0x0(%rax,%rax,1)
    241b:	00 00 00 
    241e:	66 90                	xchg   %ax,%ax

0000000000002420 <__cxx_global_array_dtor.15>:
    2420:	50                   	push   %rax
    2421:	48 8b 3d 18 6f 01 00 	mov    0x16f18(%rip),%rdi        # 19340 <_ZZ9reg_str_8B5cxx11jbE11reg_stringsB5cxx11+0x60>
    2428:	48 8d 05 21 6f 01 00 	lea    0x16f21(%rip),%rax        # 19350 <_ZZ9reg_str_8B5cxx11jbE11reg_stringsB5cxx11+0x70>
    242f:	48 39 c7             	cmp    %rax,%rdi
    2432:	74 05                	je     2439 <__cxx_global_array_dtor.15+0x19>
    2434:	e8 77 fd ff ff       	call   21b0 <_ZdlPv@plt>
    2439:	48 8b 3d e0 6e 01 00 	mov    0x16ee0(%rip),%rdi        # 19320 <_ZZ9reg_str_8B5cxx11jbE11reg_stringsB5cxx11+0x40>
    2440:	48 8d 05 e9 6e 01 00 	lea    0x16ee9(%rip),%rax        # 19330 <_ZZ9reg_str_8B5cxx11jbE11reg_stringsB5cxx11+0x50>
    2447:	48 39 c7             	cmp    %rax,%rdi
    244a:	74 05                	je     2451 <__cxx_global_array_dtor.15+0x31>
    244c:	e8 5f fd ff ff       	call   21b0 <_ZdlPv@plt>
    2451:	48 8b 3d a8 6e 01 00 	mov    0x16ea8(%rip),%rdi        # 19300 <_ZZ9reg_str_8B5cxx11jbE11reg_stringsB5cxx11+0x20>
    2458:	48 8d 05 b1 6e 01 00 	lea    0x16eb1(%rip),%rax        # 19310 <_ZZ9reg_str_8B5cxx11jbE11reg_stringsB5cxx11+0x30>
    245f:	48 39 c7             	cmp    %rax,%rdi
    2462:	74 05                	je     2469 <__cxx_global_array_dtor.15+0x49>
    2464:	e8 47 fd ff ff       	call   21b0 <_ZdlPv@plt>
    2469:	48 8b 3d 70 6e 01 00 	mov    0x16e70(%rip),%rdi        # 192e0 <_ZZ9reg_str_8B5cxx11jbE11reg_stringsB5cxx11>
    2470:	48 8d 05 79 6e 01 00 	lea    0x16e79(%rip),%rax        # 192f0 <_ZZ9reg_str_8B5cxx11jbE11reg_stringsB5cxx11+0x10>
    2477:	48 39 c7             	cmp    %rax,%rdi
    247a:	74 06                	je     2482 <__cxx_global_array_dtor.15+0x62>
    247c:	58                   	pop    %rax
    247d:	e9 2e fd ff ff       	jmp    21b0 <_ZdlPv@plt>
    2482:	58                   	pop    %rax
    2483:	c3                   	ret    
    2484:	66 2e 0f 1f 84 00 00 	cs nopw 0x0(%rax,%rax,1)
    248b:	00 00 00 
    248e:	66 90                	xchg   %ax,%ax

0000000000002490 <__cxx_global_array_dtor.20>:
    2490:	50                   	push   %rax
    2491:	48 8b 3d 38 6f 01 00 	mov    0x16f38(%rip),%rdi        # 193d0 <_ZZ9reg_str_8B5cxx11jbE11reg_stringsB5cxx11_0+0x60>
    2498:	48 8d 05 41 6f 01 00 	lea    0x16f41(%rip),%rax        # 193e0 <_ZZ9reg_str_8B5cxx11jbE11reg_stringsB5cxx11_0+0x70>
    249f:	48 39 c7             	cmp    %rax,%rdi
    24a2:	74 05                	je     24a9 <__cxx_global_array_dtor.20+0x19>
    24a4:	e8 07 fd ff ff       	call   21b0 <_ZdlPv@plt>
    24a9:	48 8b 3d 00 6f 01 00 	mov    0x16f00(%rip),%rdi        # 193b0 <_ZZ9reg_str_8B5cxx11jbE11reg_stringsB5cxx11_0+0x40>
    24b0:	48 8d 05 09 6f 01 00 	lea    0x16f09(%rip),%rax        # 193c0 <_ZZ9reg_str_8B5cxx11jbE11reg_stringsB5cxx11_0+0x50>
    24b7:	48 39 c7             	cmp    %rax,%rdi
    24ba:	74 05                	je     24c1 <__cxx_global_array_dtor.20+0x31>
    24bc:	e8 ef fc ff ff       	call   21b0 <_ZdlPv@plt>
    24c1:	48 8b 3d c8 6e 01 00 	mov    0x16ec8(%rip),%rdi        # 19390 <_ZZ9reg_str_8B5cxx11jbE11reg_stringsB5cxx11_0+0x20>
    24c8:	48 8d 05 d1 6e 01 00 	lea    0x16ed1(%rip),%rax        # 193a0 <_ZZ9reg_str_8B5cxx11jbE11reg_stringsB5cxx11_0+0x30>
    24cf:	48 39 c7             	cmp    %rax,%rdi
    24d2:	74 05                	je     24d9 <__cxx_global_array_dtor.20+0x49>
    24d4:	e8 d7 fc ff ff       	call   21b0 <_ZdlPv@plt>
    24d9:	48 8b 3d 90 6e 01 00 	mov    0x16e90(%rip),%rdi        # 19370 <_ZZ9reg_str_8B5cxx11jbE11reg_stringsB5cxx11_0>
    24e0:	48 8d 05 99 6e 01 00 	lea    0x16e99(%rip),%rax        # 19380 <_ZZ9reg_str_8B5cxx11jbE11reg_stringsB5cxx11_0+0x10>
    24e7:	48 39 c7             	cmp    %rax,%rdi
    24ea:	74 06                	je     24f2 <__cxx_global_array_dtor.20+0x62>
    24ec:	58                   	pop    %rax
    24ed:	e9 be fc ff ff       	jmp    21b0 <_ZdlPv@plt>
    24f2:	58                   	pop    %rax
    24f3:	c3                   	ret    
    24f4:	66 2e 0f 1f 84 00 00 	cs nopw 0x0(%rax,%rax,1)
    24fb:	00 00 00 
    24fe:	66 90                	xchg   %ax,%ax

0000000000002500 <_GLOBAL__sub_I_decoder.cc>:
    2500:	53                   	push   %rbx
    2501:	48 8d 1d b8 6c 01 00 	lea    0x16cb8(%rip),%rbx        # 191c0 <_ZStL8__ioinit>
    2508:	48 89 df             	mov    %rbx,%rdi
    250b:	e8 70 fd ff ff       	call   2280 <_ZNSt8ios_base4InitC1Ev@plt>
    2510:	48 8b 3d e1 6a 01 00 	mov    0x16ae1(%rip),%rdi        # 18ff8 <_ZNSt8ios_base4InitD1Ev@GLIBCXX_3.4>
    2517:	48 8d 15 72 6c 01 00 	lea    0x16c72(%rip),%rdx        # 19190 <__dso_handle>
    251e:	48 89 de             	mov    %rbx,%rsi
    2521:	5b                   	pop    %rbx
    2522:	e9 79 fc ff ff       	jmp    21a0 <__cxa_atexit@plt>
    2527:	66 0f 1f 84 00 00 00 	nopw   0x0(%rax,%rax,1)
    252e:	00 00 

0000000000002530 <_GLOBAL__sub_I_pix86.cc>:
    2530:	53                   	push   %rbx
    2531:	48 8d 1d c0 6e 01 00 	lea    0x16ec0(%rip),%rbx        # 193f8 <_ZStL8__ioinit>
    2538:	48 89 df             	mov    %rbx,%rdi
    253b:	e8 40 fd ff ff       	call   2280 <_ZNSt8ios_base4InitC1Ev@plt>
    2540:	48 8b 3d b1 6a 01 00 	mov    0x16ab1(%rip),%rdi        # 18ff8 <_ZNSt8ios_base4InitD1Ev@GLIBCXX_3.4>
    2547:	48 8d 15 42 6c 01 00 	lea    0x16c42(%rip),%rdx        # 19190 <__dso_handle>
    254e:	48 89 de             	mov    %rbx,%rsi
    2551:	5b                   	pop    %rbx
    2552:	e9 49 fc ff ff       	jmp    21a0 <__cxa_atexit@plt>
    2557:	66 0f 1f 84 00 00 00 	nopw   0x0(%rax,%rax,1)
    255e:	00 00 

0000000000002560 <_start>:
    2560:	f3 0f 1e fa          	endbr64 
    2564:	31 ed                	xor    %ebp,%ebp
    2566:	49 89 d1             	mov    %rdx,%r9
    2569:	5e                   	pop    %rsi
    256a:	48 89 e2             	mov    %rsp,%rdx
    256d:	48 83 e4 f0          	and    $0xfffffffffffffff0,%rsp
    2571:	50                   	push   %rax
    2572:	54                   	push   %rsp
    2573:	45 31 c0             	xor    %r8d,%r8d
    2576:	31 c9                	xor    %ecx,%ecx
    2578:	48 8d 3d c1 01 01 00 	lea    0x101c1(%rip),%rdi        # 12740 <main>
    257f:	ff 15 33 6a 01 00    	call   *0x16a33(%rip)        # 18fb8 <__libc_start_main@GLIBC_2.34>
    2585:	f4                   	hlt    
    2586:	66 2e 0f 1f 84 00 00 	cs nopw 0x0(%rax,%rax,1)
    258d:	00 00 00 

0000000000002590 <deregister_tm_clones>:
    2590:	48 8d 3d 11 6c 01 00 	lea    0x16c11(%rip),%rdi        # 191a8 <__TMC_END__>
    2597:	48 8d 05 0a 6c 01 00 	lea    0x16c0a(%rip),%rax        # 191a8 <__TMC_END__>
    259e:	48 39 f8             	cmp    %rdi,%rax
    25a1:	74 15                	je     25b8 <deregister_tm_clones+0x28>
    25a3:	48 8b 05 26 6a 01 00 	mov    0x16a26(%rip),%rax        # 18fd0 <_ITM_deregisterTMCloneTable@Base>
    25aa:	48 85 c0             	test   %rax,%rax
    25ad:	74 09                	je     25b8 <deregister_tm_clones+0x28>
    25af:	ff e0                	jmp    *%rax
    25b1:	0f 1f 80 00 00 00 00 	nopl   0x0(%rax)
    25b8:	c3                   	ret    
    25b9:	0f 1f 80 00 00 00 00 	nopl   0x0(%rax)

00000000000025c0 <register_tm_clones>:
    25c0:	48 8d 3d e1 6b 01 00 	lea    0x16be1(%rip),%rdi        # 191a8 <__TMC_END__>
    25c7:	48 8d 35 da 6b 01 00 	lea    0x16bda(%rip),%rsi        # 191a8 <__TMC_END__>
    25ce:	48 29 fe             	sub    %rdi,%rsi
    25d1:	48 89 f0             	mov    %rsi,%rax
    25d4:	48 c1 ee 3f          	shr    $0x3f,%rsi
    25d8:	48 c1 f8 03          	sar    $0x3,%rax
    25dc:	48 01 c6             	add    %rax,%rsi
    25df:	48 d1 fe             	sar    %rsi
    25e2:	74 14                	je     25f8 <register_tm_clones+0x38>
    25e4:	48 8b 05 fd 69 01 00 	mov    0x169fd(%rip),%rax        # 18fe8 <_ITM_registerTMCloneTable@Base>
    25eb:	48 85 c0             	test   %rax,%rax
    25ee:	74 08                	je     25f8 <register_tm_clones+0x38>
    25f0:	ff e0                	jmp    *%rax
    25f2:	66 0f 1f 44 00 00    	nopw   0x0(%rax,%rax,1)
    25f8:	c3                   	ret    
    25f9:	0f 1f 80 00 00 00 00 	nopl   0x0(%rax)

0000000000002600 <__do_global_dtors_aux>:
    2600:	f3 0f 1e fa          	endbr64 
    2604:	80 3d a5 6b 01 00 00 	cmpb   $0x0,0x16ba5(%rip)        # 191b0 <completed.0>
    260b:	75 2b                	jne    2638 <__do_global_dtors_aux+0x38>
    260d:	55                   	push   %rbp
    260e:	48 83 3d 8a 69 01 00 	cmpq   $0x0,0x1698a(%rip)        # 18fa0 <__cxa_finalize@GLIBC_2.2.5>
    2615:	00 
    2616:	48 89 e5             	mov    %rsp,%rbp
    2619:	74 0c                	je     2627 <__do_global_dtors_aux+0x27>
    261b:	48 8b 3d 6e 6b 01 00 	mov    0x16b6e(%rip),%rdi        # 19190 <__dso_handle>
    2622:	e8 e9 fc ff ff       	call   2310 <__cxa_finalize@plt>
    2627:	e8 64 ff ff ff       	call   2590 <deregister_tm_clones>
    262c:	c6 05 7d 6b 01 00 01 	movb   $0x1,0x16b7d(%rip)        # 191b0 <completed.0>
    2633:	5d                   	pop    %rbp
    2634:	c3                   	ret    
    2635:	0f 1f 00             	nopl   (%rax)
    2638:	c3                   	ret    
    2639:	0f 1f 80 00 00 00 00 	nopl   0x0(%rax)

0000000000002640 <frame_dummy>:
    2640:	f3 0f 1e fa          	endbr64 
    2644:	e9 77 ff ff ff       	jmp    25c0 <register_tm_clones>
    2649:	0f 1f 80 00 00 00 00 	nopl   0x0(%rax)

0000000000002650 <_ZN3CPUC1Em>:
    2650:	41 56                	push   %r14
    2652:	53                   	push   %rbx
    2653:	50                   	push   %rax
    2654:	49 89 f6             	mov    %rsi,%r14
    2657:	48 89 fb             	mov    %rdi,%rbx
    265a:	c7 47 03 00 00 00 00 	movl   $0x0,0x3(%rdi)
    2661:	c7 07 00 00 00 00    	movl   $0x0,(%rdi)
    2667:	48 c7 47 18 00 00 00 	movq   $0x0,0x18(%rdi)
    266e:	00 
    266f:	48 c7 47 08 00 00 00 	movq   $0x0,0x8(%rdi)
    2676:	00 
    2677:	c7 47 10 00 00 00 00 	movl   $0x0,0x10(%rdi)
    267e:	48 89 f7             	mov    %rsi,%rdi
    2681:	e8 aa f9 ff ff       	call   2030 <_Znam@plt>
    2686:	48 89 43 40          	mov    %rax,0x40(%rbx)
    268a:	4c 89 73 48          	mov    %r14,0x48(%rbx)
    268e:	0f 57 c0             	xorps  %xmm0,%xmm0
    2691:	0f 11 43 20          	movups %xmm0,0x20(%rbx)
    2695:	0f 11 43 30          	movups %xmm0,0x30(%rbx)
    2699:	48 83 c4 08          	add    $0x8,%rsp
    269d:	5b                   	pop    %rbx
    269e:	41 5e                	pop    %r14
    26a0:	c3                   	ret    
    26a1:	66 2e 0f 1f 84 00 00 	cs nopw 0x0(%rax,%rax,1)
    26a8:	00 00 00 
    26ab:	0f 1f 44 00 00       	nopl   0x0(%rax,%rax,1)

00000000000026b0 <_ZN3CPU5regatEi>:
    26b0:	48 63 c6             	movslq %esi,%rax
    26b3:	48 8d 04 87          	lea    (%rdi,%rax,4),%rax
    26b7:	48 83 c0 20          	add    $0x20,%rax
    26bb:	c3                   	ret    
    26bc:	0f 1f 40 00          	nopl   0x0(%rax)

00000000000026c0 <_ZN3CPU8segregatEi>:
    26c0:	41 56                	push   %r14
    26c2:	53                   	push   %rbx
    26c3:	50                   	push   %rax
    26c4:	83 fe 05             	cmp    $0x5,%esi
    26c7:	77 3f                	ja     2708 <_ZN3CPU8segregatEi+0x48>
    26c9:	89 f0                	mov    %esi,%eax
    26cb:	48 8d 0d 32 09 01 00 	lea    0x10932(%rip),%rcx        # 13004 <_IO_stdin_used+0x4>
    26d2:	48 63 04 81          	movslq (%rcx,%rax,4),%rax
    26d6:	48 01 c8             	add    %rcx,%rax
    26d9:	ff e0                	jmp    *%rax
    26db:	48 83 c7 08          	add    $0x8,%rdi
    26df:	eb 1c                	jmp    26fd <_ZN3CPU8segregatEi+0x3d>
    26e1:	48 83 c7 0a          	add    $0xa,%rdi
    26e5:	eb 16                	jmp    26fd <_ZN3CPU8segregatEi+0x3d>
    26e7:	48 83 c7 0c          	add    $0xc,%rdi
    26eb:	eb 10                	jmp    26fd <_ZN3CPU8segregatEi+0x3d>
    26ed:	48 83 c7 0e          	add    $0xe,%rdi
    26f1:	eb 0a                	jmp    26fd <_ZN3CPU8segregatEi+0x3d>
    26f3:	48 83 c7 10          	add    $0x10,%rdi
    26f7:	eb 04                	jmp    26fd <_ZN3CPU8segregatEi+0x3d>
    26f9:	48 83 c7 12          	add    $0x12,%rdi
    26fd:	48 89 f8             	mov    %rdi,%rax
    2700:	48 83 c4 08          	add    $0x8,%rsp
    2704:	5b                   	pop    %rbx
    2705:	41 5e                	pop    %r14
    2707:	c3                   	ret    
    2708:	bf 10 00 00 00       	mov    $0x10,%edi
    270d:	e8 9e f9 ff ff       	call   20b0 <__cxa_allocate_exception@plt>
    2712:	48 89 c3             	mov    %rax,%rbx
    2715:	48 8d 35 00 09 01 00 	lea    0x10900(%rip),%rsi        # 1301c <_IO_stdin_used+0x1c>
    271c:	48 89 c7             	mov    %rax,%rdi
    271f:	e8 dc f9 ff ff       	call   2100 <_ZNSt12domain_errorC1EPKc@plt>
    2724:	48 8b 35 7d 68 01 00 	mov    0x1687d(%rip),%rsi        # 18fa8 <_ZTISt12domain_error@GLIBCXX_3.4>
    272b:	48 8b 15 8e 68 01 00 	mov    0x1688e(%rip),%rdx        # 18fc0 <_ZNSt12domain_errorD1Ev@GLIBCXX_3.4>
    2732:	48 89 df             	mov    %rbx,%rdi
    2735:	e8 86 fb ff ff       	call   22c0 <__cxa_throw@plt>
    273a:	49 89 c6             	mov    %rax,%r14
    273d:	48 89 df             	mov    %rbx,%rdi
    2740:	e8 1b fa ff ff       	call   2160 <__cxa_free_exception@plt>
    2745:	4c 89 f7             	mov    %r14,%rdi
    2748:	e8 83 fb ff ff       	call   22d0 <_Unwind_Resume@plt>
    274d:	0f 1f 00             	nopl   (%rax)

0000000000002750 <_ZN3CPU10stack_pop8Ev>:
    2750:	8b 47 30             	mov    0x30(%rdi),%eax
    2753:	8d 48 01             	lea    0x1(%rax),%ecx
    2756:	89 4f 30             	mov    %ecx,0x30(%rdi)
    2759:	48 8b 4f 40          	mov    0x40(%rdi),%rcx
    275d:	8a 04 01             	mov    (%rcx,%rax,1),%al
    2760:	c3                   	ret    
    2761:	66 2e 0f 1f 84 00 00 	cs nopw 0x0(%rax,%rax,1)
    2768:	00 00 00 
    276b:	0f 1f 44 00 00       	nopl   0x0(%rax,%rax,1)

0000000000002770 <_ZN3CPU11stack_pop16Ev>:
    2770:	8b 4f 30             	mov    0x30(%rdi),%ecx
    2773:	48 8b 47 40          	mov    0x40(%rdi),%rax
    2777:	0f b7 04 08          	movzwl (%rax,%rcx,1),%eax
    277b:	83 c1 02             	add    $0x2,%ecx
    277e:	89 4f 30             	mov    %ecx,0x30(%rdi)
    2781:	c3                   	ret    
    2782:	66 2e 0f 1f 84 00 00 	cs nopw 0x0(%rax,%rax,1)
    2789:	00 00 00 
    278c:	0f 1f 40 00          	nopl   0x0(%rax)

0000000000002790 <_ZN3CPU11stack_pop32Ev>:
    2790:	8b 4f 30             	mov    0x30(%rdi),%ecx
    2793:	48 8b 47 40          	mov    0x40(%rdi),%rax
    2797:	8b 04 08             	mov    (%rax,%rcx,1),%eax
    279a:	83 c1 04             	add    $0x4,%ecx
    279d:	89 4f 30             	mov    %ecx,0x30(%rdi)
    27a0:	c3                   	ret    
    27a1:	66 2e 0f 1f 84 00 00 	cs nopw 0x0(%rax,%rax,1)
    27a8:	00 00 00 
    27ab:	0f 1f 44 00 00       	nopl   0x0(%rax,%rax,1)

00000000000027b0 <_ZN3CPU11stack_push8Eh>:
    27b0:	8b 47 30             	mov    0x30(%rdi),%eax
    27b3:	8d 48 ff             	lea    -0x1(%rax),%ecx
    27b6:	89 4f 30             	mov    %ecx,0x30(%rdi)
    27b9:	48 8b 4f 40          	mov    0x40(%rdi),%rcx
    27bd:	40 88 34 01          	mov    %sil,(%rcx,%rax,1)
    27c1:	c3                   	ret    
    27c2:	66 2e 0f 1f 84 00 00 	cs nopw 0x0(%rax,%rax,1)
    27c9:	00 00 00 
    27cc:	0f 1f 40 00          	nopl   0x0(%rax)

00000000000027d0 <_ZN3CPU12stack_push16Et>:
    27d0:	8b 47 30             	mov    0x30(%rdi),%eax
    27d3:	48 8b 4f 40          	mov    0x40(%rdi),%rcx
    27d7:	66 89 34 01          	mov    %si,(%rcx,%rax,1)
    27db:	83 47 30 fe          	addl   $0xfffffffe,0x30(%rdi)
    27df:	c3                   	ret    

00000000000027e0 <_ZN3CPU12stack_push32Ej>:
    27e0:	8b 47 30             	mov    0x30(%rdi),%eax
    27e3:	48 8b 4f 40          	mov    0x40(%rdi),%rcx
    27e7:	89 34 01             	mov    %esi,(%rcx,%rax,1)
    27ea:	83 47 30 fc          	addl   $0xfffffffc,0x30(%rdi)
    27ee:	c3                   	ret    
    27ef:	90                   	nop

00000000000027f0 <_ZN3CPU13set_adc_flagsEjjj>:
    27f0:	c3                   	ret    
    27f1:	66 2e 0f 1f 84 00 00 	cs nopw 0x0(%rax,%rax,1)
    27f8:	00 00 00 
    27fb:	0f 1f 44 00 00       	nopl   0x0(%rax,%rax,1)

0000000000002800 <_ZN3CPU13set_add_flagsEjjj>:
    2800:	c3                   	ret    
    2801:	66 2e 0f 1f 84 00 00 	cs nopw 0x0(%rax,%rax,1)
    2808:	00 00 00 
    280b:	0f 1f 44 00 00       	nopl   0x0(%rax,%rax,1)

0000000000002810 <_ZN3CPU13set_and_flagsEjjj>:
    2810:	c3                   	ret    
    2811:	66 2e 0f 1f 84 00 00 	cs nopw 0x0(%rax,%rax,1)
    2818:	00 00 00 
    281b:	0f 1f 44 00 00       	nopl   0x0(%rax,%rax,1)

0000000000002820 <_ZN3CPU13set_cmp_flagsEjjj>:
    2820:	c3                   	ret    
    2821:	66 2e 0f 1f 84 00 00 	cs nopw 0x0(%rax,%rax,1)
    2828:	00 00 00 
    282b:	0f 1f 44 00 00       	nopl   0x0(%rax,%rax,1)

0000000000002830 <_ZN3CPU13set_dec_flagsEjj>:
    2830:	c3                   	ret    
    2831:	66 2e 0f 1f 84 00 00 	cs nopw 0x0(%rax,%rax,1)
    2838:	00 00 00 
    283b:	0f 1f 44 00 00       	nopl   0x0(%rax,%rax,1)

0000000000002840 <_ZN3CPU13set_inc_flagsEjj>:
    2840:	c3                   	ret    
    2841:	66 2e 0f 1f 84 00 00 	cs nopw 0x0(%rax,%rax,1)
    2848:	00 00 00 
    284b:	0f 1f 44 00 00       	nopl   0x0(%rax,%rax,1)

0000000000002850 <_ZN3CPU12set_or_flagsEjjj>:
    2850:	c3                   	ret    
    2851:	66 2e 0f 1f 84 00 00 	cs nopw 0x0(%rax,%rax,1)
    2858:	00 00 00 
    285b:	0f 1f 44 00 00       	nopl   0x0(%rax,%rax,1)

0000000000002860 <_ZN3CPU13set_sbb_flagsEjjj>:
    2860:	c3                   	ret    
    2861:	66 2e 0f 1f 84 00 00 	cs nopw 0x0(%rax,%rax,1)
    2868:	00 00 00 
    286b:	0f 1f 44 00 00       	nopl   0x0(%rax,%rax,1)

0000000000002870 <_ZN3CPU13set_sub_flagsEjjj>:
    2870:	c3                   	ret    
    2871:	66 2e 0f 1f 84 00 00 	cs nopw 0x0(%rax,%rax,1)
    2878:	00 00 00 
    287b:	0f 1f 44 00 00       	nopl   0x0(%rax,%rax,1)

0000000000002880 <_ZN3CPU13set_xor_flagsEjjj>:
    2880:	c3                   	ret    
    2881:	66 2e 0f 1f 84 00 00 	cs nopw 0x0(%rax,%rax,1)
    2888:	00 00 00 
    288b:	0f 1f 44 00 00       	nopl   0x0(%rax,%rax,1)

0000000000002890 <_ZN3CPU3aaaEv>:
    2890:	41 56                	push   %r14
    2892:	53                   	push   %rbx
    2893:	50                   	push   %rax
    2894:	48 89 fb             	mov    %rdi,%rbx
    2897:	4c 8d 77 20          	lea    0x20(%rdi),%r14
    289b:	8b 7f 20             	mov    0x20(%rdi),%edi
    289e:	e8 ad fd 00 00       	call   12650 <_Z12get_low_bytej>
    28a3:	24 0e                	and    $0xe,%al
    28a5:	3c 09                	cmp    $0x9,%al
    28a7:	77 06                	ja     28af <_ZN3CPU3aaaEv+0x1f>
    28a9:	80 7b 03 00          	cmpb   $0x0,0x3(%rbx)
    28ad:	74 20                	je     28cf <_ZN3CPU3aaaEv+0x3f>
    28af:	8b 7b 20             	mov    0x20(%rbx),%edi
    28b2:	e8 b9 fd 00 00       	call   12670 <_Z12get_low_wordj>
    28b7:	05 06 01 00 00       	add    $0x106,%eax
    28bc:	0f b7 f0             	movzwl %ax,%esi
    28bf:	4c 89 f7             	mov    %r14,%rdi
    28c2:	e8 99 fd 00 00       	call   12660 <_Z12set_low_wordRjt>
    28c7:	c6 43 03 01          	movb   $0x1,0x3(%rbx)
    28cb:	b0 01                	mov    $0x1,%al
    28cd:	eb 06                	jmp    28d5 <_ZN3CPU3aaaEv+0x45>
    28cf:	c6 43 03 00          	movb   $0x0,0x3(%rbx)
    28d3:	31 c0                	xor    %eax,%eax
    28d5:	88 03                	mov    %al,(%rbx)
    28d7:	8b 7b 20             	mov    0x20(%rbx),%edi
    28da:	e8 71 fd 00 00       	call   12650 <_Z12get_low_bytej>
    28df:	24 0f                	and    $0xf,%al
    28e1:	0f b6 f0             	movzbl %al,%esi
    28e4:	4c 89 f7             	mov    %r14,%rdi
    28e7:	48 83 c4 08          	add    $0x8,%rsp
    28eb:	5b                   	pop    %rbx
    28ec:	41 5e                	pop    %r14
    28ee:	e9 4d fd 00 00       	jmp    12640 <_Z12set_low_byteRjh>
    28f3:	66 2e 0f 1f 84 00 00 	cs nopw 0x0(%rax,%rax,1)
    28fa:	00 00 00 
    28fd:	0f 1f 00             	nopl   (%rax)

0000000000002900 <_ZN3CPU3aadEh>:
    2900:	55                   	push   %rbp
    2901:	41 57                	push   %r15
    2903:	41 56                	push   %r14
    2905:	53                   	push   %rbx
    2906:	50                   	push   %rax
    2907:	41 89 f6             	mov    %esi,%r14d
    290a:	48 89 fb             	mov    %rdi,%rbx
    290d:	48 8d 6f 20          	lea    0x20(%rdi),%rbp
    2911:	8b 7f 20             	mov    0x20(%rdi),%edi
    2914:	e8 37 fd 00 00       	call   12650 <_Z12get_low_bytej>
    2919:	41 89 c7             	mov    %eax,%r15d
    291c:	8b 7b 20             	mov    0x20(%rbx),%edi
    291f:	e8 6c fd 00 00       	call   12690 <_Z22get_low_word_high_bytej>
    2924:	41 f6 e6             	mul    %r14b
    2927:	44 00 f8             	add    %r15b,%al
    292a:	0f b6 f0             	movzbl %al,%esi
    292d:	48 89 ef             	mov    %rbp,%rdi
    2930:	e8 0b fd 00 00       	call   12640 <_Z12set_low_byteRjh>
    2935:	48 89 ef             	mov    %rbp,%rdi
    2938:	31 f6                	xor    %esi,%esi
    293a:	48 83 c4 08          	add    $0x8,%rsp
    293e:	5b                   	pop    %rbx
    293f:	41 5e                	pop    %r14
    2941:	41 5f                	pop    %r15
    2943:	5d                   	pop    %rbp
    2944:	e9 37 fd 00 00       	jmp    12680 <_Z22set_low_word_high_byteRjh>
    2949:	0f 1f 80 00 00 00 00 	nopl   0x0(%rax)

0000000000002950 <_ZN3CPU3aamEh>:
    2950:	55                   	push   %rbp
    2951:	53                   	push   %rbx
    2952:	50                   	push   %rax
    2953:	89 f5                	mov    %esi,%ebp
    2955:	48 89 fb             	mov    %rdi,%rbx
    2958:	8b 7f 20             	mov    0x20(%rdi),%edi
    295b:	48 83 c3 20          	add    $0x20,%rbx
    295f:	e8 ec fc 00 00       	call   12650 <_Z12get_low_bytej>
    2964:	0f b6 c0             	movzbl %al,%eax
    2967:	40 f6 f5             	div    %bpl
    296a:	0f b6 ec             	movzbl %ah,%ebp
    296d:	0f b6 f0             	movzbl %al,%esi
    2970:	48 89 df             	mov    %rbx,%rdi
    2973:	e8 08 fd 00 00       	call   12680 <_Z22set_low_word_high_byteRjh>
    2978:	48 89 df             	mov    %rbx,%rdi
    297b:	89 ee                	mov    %ebp,%esi
    297d:	48 83 c4 08          	add    $0x8,%rsp
    2981:	5b                   	pop    %rbx
    2982:	5d                   	pop    %rbp
    2983:	e9 b8 fc 00 00       	jmp    12640 <_Z12set_low_byteRjh>
    2988:	0f 1f 84 00 00 00 00 	nopl   0x0(%rax,%rax,1)
    298f:	00 

0000000000002990 <_ZN3CPU3aasEv>:
    2990:	41 56                	push   %r14
    2992:	53                   	push   %rbx
    2993:	50                   	push   %rax
    2994:	48 89 fb             	mov    %rdi,%rbx
    2997:	4c 8d 77 20          	lea    0x20(%rdi),%r14
    299b:	8b 7f 20             	mov    0x20(%rdi),%edi
    299e:	e8 ad fc 00 00       	call   12650 <_Z12get_low_bytej>
    29a3:	24 0e                	and    $0xe,%al
    29a5:	3c 09                	cmp    $0x9,%al
    29a7:	77 06                	ja     29af <_ZN3CPU3aasEv+0x1f>
    29a9:	80 7b 03 00          	cmpb   $0x0,0x3(%rbx)
    29ad:	74 34                	je     29e3 <_ZN3CPU3aasEv+0x53>
    29af:	8b 7b 20             	mov    0x20(%rbx),%edi
    29b2:	e8 b9 fc 00 00       	call   12670 <_Z12get_low_wordj>
    29b7:	83 c0 fa             	add    $0xfffffffa,%eax
    29ba:	0f b7 f0             	movzwl %ax,%esi
    29bd:	4c 89 f7             	mov    %r14,%rdi
    29c0:	e8 9b fc 00 00       	call   12660 <_Z12set_low_wordRjt>
    29c5:	8b 7b 20             	mov    0x20(%rbx),%edi
    29c8:	e8 c3 fc 00 00       	call   12690 <_Z22get_low_word_high_bytej>
    29cd:	04 ff                	add    $0xff,%al
    29cf:	0f b6 f0             	movzbl %al,%esi
    29d2:	4c 89 f7             	mov    %r14,%rdi
    29d5:	e8 a6 fc 00 00       	call   12680 <_Z22set_low_word_high_byteRjh>
    29da:	c6 43 03 01          	movb   $0x1,0x3(%rbx)
    29de:	c6 03 01             	movb   $0x1,(%rbx)
    29e1:	eb 07                	jmp    29ea <_ZN3CPU3aasEv+0x5a>
    29e3:	c6 03 00             	movb   $0x0,(%rbx)
    29e6:	c6 43 03 00          	movb   $0x0,0x3(%rbx)
    29ea:	41 8b 3e             	mov    (%r14),%edi
    29ed:	e8 5e fc 00 00       	call   12650 <_Z12get_low_bytej>
    29f2:	24 0f                	and    $0xf,%al
    29f4:	0f b6 f0             	movzbl %al,%esi
    29f7:	4c 89 f7             	mov    %r14,%rdi
    29fa:	48 83 c4 08          	add    $0x8,%rsp
    29fe:	5b                   	pop    %rbx
    29ff:	41 5e                	pop    %r14
    2a01:	e9 3a fc 00 00       	jmp    12640 <_Z12set_low_byteRjh>
    2a06:	66 2e 0f 1f 84 00 00 	cs nopw 0x0(%rax,%rax,1)
    2a0d:	00 00 00 

0000000000002a10 <_ZN3CPU4adc8Ehh>:
    2a10:	8d 04 32             	lea    (%rdx,%rsi,1),%eax
    2a13:	02 07                	add    (%rdi),%al
    2a15:	c3                   	ret    
    2a16:	66 2e 0f 1f 84 00 00 	cs nopw 0x0(%rax,%rax,1)
    2a1d:	00 00 00 

0000000000002a20 <_ZN3CPU5adc16Ett>:
    2a20:	0f b6 07             	movzbl (%rdi),%eax
    2a23:	01 f0                	add    %esi,%eax
    2a25:	01 d0                	add    %edx,%eax
    2a27:	c3                   	ret    
    2a28:	0f 1f 84 00 00 00 00 	nopl   0x0(%rax,%rax,1)
    2a2f:	00 

0000000000002a30 <_ZN3CPU5adc32Ejj>:
    2a30:	0f b6 07             	movzbl (%rdi),%eax
    2a33:	01 f0                	add    %esi,%eax
    2a35:	01 d0                	add    %edx,%eax
    2a37:	c3                   	ret    
    2a38:	0f 1f 84 00 00 00 00 	nopl   0x0(%rax,%rax,1)
    2a3f:	00 

0000000000002a40 <_ZN3CPU4add8Ehh>:
    2a40:	8d 04 32             	lea    (%rdx,%rsi,1),%eax
    2a43:	c3                   	ret    
    2a44:	66 2e 0f 1f 84 00 00 	cs nopw 0x0(%rax,%rax,1)
    2a4b:	00 00 00 
    2a4e:	66 90                	xchg   %ax,%ax

0000000000002a50 <_ZN3CPU5add16Ett>:
    2a50:	8d 04 16             	lea    (%rsi,%rdx,1),%eax
    2a53:	c3                   	ret    
    2a54:	66 2e 0f 1f 84 00 00 	cs nopw 0x0(%rax,%rax,1)
    2a5b:	00 00 00 
    2a5e:	66 90                	xchg   %ax,%ax

0000000000002a60 <_ZN3CPU5add32Ejj>:
    2a60:	8d 04 16             	lea    (%rsi,%rdx,1),%eax
    2a63:	c3                   	ret    
    2a64:	66 2e 0f 1f 84 00 00 	cs nopw 0x0(%rax,%rax,1)
    2a6b:	00 00 00 
    2a6e:	66 90                	xchg   %ax,%ax

0000000000002a70 <_ZN3CPU4and8Ehh>:
    2a70:	89 f0                	mov    %esi,%eax
    2a72:	21 d0                	and    %edx,%eax
    2a74:	c3                   	ret    
    2a75:	66 2e 0f 1f 84 00 00 	cs nopw 0x0(%rax,%rax,1)
    2a7c:	00 00 00 
    2a7f:	90                   	nop

0000000000002a80 <_ZN3CPU5and16Ett>:
    2a80:	89 f0                	mov    %esi,%eax
    2a82:	21 d0                	and    %edx,%eax
    2a84:	c3                   	ret    
    2a85:	66 2e 0f 1f 84 00 00 	cs nopw 0x0(%rax,%rax,1)
    2a8c:	00 00 00 
    2a8f:	90                   	nop

0000000000002a90 <_ZN3CPU5and32Ejj>:
    2a90:	89 f0                	mov    %esi,%eax
    2a92:	21 d0                	and    %edx,%eax
    2a94:	c3                   	ret    
    2a95:	66 2e 0f 1f 84 00 00 	cs nopw 0x0(%rax,%rax,1)
    2a9c:	00 00 00 
    2a9f:	90                   	nop

0000000000002aa0 <_ZN3CPU6arpl16Ett>:
    2aa0:	89 f0                	mov    %esi,%eax
    2aa2:	89 f1                	mov    %esi,%ecx
    2aa4:	83 e1 03             	and    $0x3,%ecx
    2aa7:	31 f6                	xor    %esi,%esi
    2aa9:	66 83 fa 03          	cmp    $0x3,%dx
    2aad:	40 0f 92 c6          	setb   %sil
    2ab1:	66 39 f1             	cmp    %si,%cx
    2ab4:	0f 42 c2             	cmovb  %edx,%eax
    2ab7:	0f 92 47 04          	setb   0x4(%rdi)
    2abb:	c3                   	ret    
    2abc:	0f 1f 40 00          	nopl   0x0(%rax)

0000000000002ac0 <_ZN3CPU6arpl32Ejj>:
    2ac0:	89 f0                	mov    %esi,%eax
    2ac2:	c3                   	ret    
    2ac3:	66 2e 0f 1f 84 00 00 	cs nopw 0x0(%rax,%rax,1)
    2aca:	00 00 00 
    2acd:	0f 1f 00             	nopl   (%rax)

0000000000002ad0 <_ZN3CPU5bswapERj>:
    2ad0:	8b 06                	mov    (%rsi),%eax
    2ad2:	0f c8                	bswap  %eax
    2ad4:	89 06                	mov    %eax,(%rsi)
    2ad6:	c3                   	ret    
    2ad7:	66 0f 1f 84 00 00 00 	nopw   0x0(%rax,%rax,1)
    2ade:	00 00 

0000000000002ae0 <_ZN3CPU3cbwEv>:
    2ae0:	53                   	push   %rbx
    2ae1:	48 89 fb             	mov    %rdi,%rbx
    2ae4:	8b 7f 20             	mov    0x20(%rdi),%edi
    2ae7:	48 83 c3 20          	add    $0x20,%rbx
    2aeb:	e8 60 fb 00 00       	call   12650 <_Z12get_low_bytej>
    2af0:	0f be c0             	movsbl %al,%eax
    2af3:	0f b7 f0             	movzwl %ax,%esi
    2af6:	48 89 df             	mov    %rbx,%rdi
    2af9:	5b                   	pop    %rbx
    2afa:	e9 61 fb 00 00       	jmp    12660 <_Z12set_low_wordRjt>
    2aff:	90                   	nop

0000000000002b00 <_ZN3CPU3cdqEv>:
    2b00:	53                   	push   %rbx
    2b01:	48 89 fb             	mov    %rdi,%rbx
    2b04:	8b 7f 20             	mov    0x20(%rdi),%edi
    2b07:	e8 b4 fb 00 00       	call   126c0 <_Z5smaskj>
    2b0c:	89 43 28             	mov    %eax,0x28(%rbx)
    2b0f:	5b                   	pop    %rbx
    2b10:	c3                   	ret    
    2b11:	66 2e 0f 1f 84 00 00 	cs nopw 0x0(%rax,%rax,1)
    2b18:	00 00 00 
    2b1b:	0f 1f 44 00 00       	nopl   0x0(%rax,%rax,1)

0000000000002b20 <_ZN3CPU3clcEv>:
    2b20:	c6 07 00             	movb   $0x0,(%rdi)
    2b23:	c3                   	ret    
    2b24:	66 2e 0f 1f 84 00 00 	cs nopw 0x0(%rax,%rax,1)
    2b2b:	00 00 00 
    2b2e:	66 90                	xchg   %ax,%ax

0000000000002b30 <_ZN3CPU3cldEv>:
    2b30:	c6 47 01 00          	movb   $0x0,0x1(%rdi)
    2b34:	c3                   	ret    
    2b35:	66 2e 0f 1f 84 00 00 	cs nopw 0x0(%rax,%rax,1)
    2b3c:	00 00 00 
    2b3f:	90                   	nop

0000000000002b40 <_ZN3CPU3cmcEv>:
    2b40:	80 37 01             	xorb   $0x1,(%rdi)
    2b43:	c3                   	ret    
    2b44:	66 2e 0f 1f 84 00 00 	cs nopw 0x0(%rax,%rax,1)
    2b4b:	00 00 00 
    2b4e:	66 90                	xchg   %ax,%ax

0000000000002b50 <_ZN3CPU4cmp8Ehh>:
    2b50:	89 f0                	mov    %esi,%eax
    2b52:	c3                   	ret    
    2b53:	66 2e 0f 1f 84 00 00 	cs nopw 0x0(%rax,%rax,1)
    2b5a:	00 00 00 
    2b5d:	0f 1f 00             	nopl   (%rax)

0000000000002b60 <_ZN3CPU5cmp16Ett>:
    2b60:	89 f0                	mov    %esi,%eax
    2b62:	c3                   	ret    
    2b63:	66 2e 0f 1f 84 00 00 	cs nopw 0x0(%rax,%rax,1)
    2b6a:	00 00 00 
    2b6d:	0f 1f 00             	nopl   (%rax)

0000000000002b70 <_ZN3CPU5cmp32Ejj>:
    2b70:	89 f0                	mov    %esi,%eax
    2b72:	c3                   	ret    
    2b73:	66 2e 0f 1f 84 00 00 	cs nopw 0x0(%rax,%rax,1)
    2b7a:	00 00 00 
    2b7d:	0f 1f 00             	nopl   (%rax)

0000000000002b80 <_ZN3CPU3cwdEv>:
    2b80:	53                   	push   %rbx
    2b81:	48 89 fb             	mov    %rdi,%rbx
    2b84:	8b 7f 20             	mov    0x20(%rdi),%edi
    2b87:	48 83 c3 28          	add    $0x28,%rbx
    2b8b:	e8 e0 fa 00 00       	call   12670 <_Z12get_low_wordj>
    2b90:	0f b7 f8             	movzwl %ax,%edi
    2b93:	e8 38 fb 00 00       	call   126d0 <_Z5smaskt>
    2b98:	0f b7 f0             	movzwl %ax,%esi
    2b9b:	48 89 df             	mov    %rbx,%rdi
    2b9e:	5b                   	pop    %rbx
    2b9f:	e9 bc fa 00 00       	jmp    12660 <_Z12set_low_wordRjt>
    2ba4:	66 2e 0f 1f 84 00 00 	cs nopw 0x0(%rax,%rax,1)
    2bab:	00 00 00 
    2bae:	66 90                	xchg   %ax,%ax

0000000000002bb0 <_ZN3CPU4cwdeEv>:
    2bb0:	53                   	push   %rbx
    2bb1:	48 89 fb             	mov    %rdi,%rbx
    2bb4:	8b 7f 20             	mov    0x20(%rdi),%edi
    2bb7:	e8 b4 fa 00 00       	call   12670 <_Z12get_low_wordj>
    2bbc:	98                   	cwtl   
    2bbd:	89 43 20             	mov    %eax,0x20(%rbx)
    2bc0:	5b                   	pop    %rbx
    2bc1:	c3                   	ret    
    2bc2:	66 2e 0f 1f 84 00 00 	cs nopw 0x0(%rax,%rax,1)
    2bc9:	00 00 00 
    2bcc:	0f 1f 40 00          	nopl   0x0(%rax)

0000000000002bd0 <_ZN3CPU3daaEv>:
    2bd0:	55                   	push   %rbp
    2bd1:	41 57                	push   %r15
    2bd3:	41 56                	push   %r14
    2bd5:	53                   	push   %rbx
    2bd6:	50                   	push   %rax
    2bd7:	48 89 fb             	mov    %rdi,%rbx
    2bda:	4c 8d 77 20          	lea    0x20(%rdi),%r14
    2bde:	8b 7f 20             	mov    0x20(%rdi),%edi
    2be1:	e8 6a fa 00 00       	call   12650 <_Z12get_low_bytej>
    2be6:	41 89 c7             	mov    %eax,%r15d
    2be9:	40 8a 2b             	mov    (%rbx),%bpl
    2bec:	c6 03 00             	movb   $0x0,(%rbx)
    2bef:	24 0e                	and    $0xe,%al
    2bf1:	3c 09                	cmp    $0x9,%al
    2bf3:	77 06                	ja     2bfb <_ZN3CPU3daaEv+0x2b>
    2bf5:	80 7b 03 00          	cmpb   $0x0,0x3(%rbx)
    2bf9:	74 39                	je     2c34 <_ZN3CPU3daaEv+0x64>
    2bfb:	41 8d 47 06          	lea    0x6(%r15),%eax
    2bff:	0f b6 f0             	movzbl %al,%esi
    2c02:	4c 89 f7             	mov    %r14,%rdi
    2c05:	e8 36 fa 00 00       	call   12640 <_Z12set_low_byteRjh>
    2c0a:	b0 01                	mov    $0x1,%al
    2c0c:	40 84 ed             	test   %bpl,%bpl
    2c0f:	75 0e                	jne    2c1f <_ZN3CPU3daaEv+0x4f>
    2c11:	41 8b 3e             	mov    (%r14),%edi
    2c14:	e8 37 fa 00 00       	call   12650 <_Z12get_low_bytej>
    2c19:	44 38 f8             	cmp    %r15b,%al
    2c1c:	0f 92 c0             	setb   %al
    2c1f:	88 03                	mov    %al,(%rbx)
    2c21:	c6 43 03 01          	movb   $0x1,0x3(%rbx)
    2c25:	41 80 ff 99          	cmp    $0x99,%r15b
    2c29:	77 13                	ja     2c3e <_ZN3CPU3daaEv+0x6e>
    2c2b:	40 84 ed             	test   %bpl,%bpl
    2c2e:	75 0e                	jne    2c3e <_ZN3CPU3daaEv+0x6e>
    2c30:	31 c0                	xor    %eax,%eax
    2c32:	eb 21                	jmp    2c55 <_ZN3CPU3daaEv+0x85>
    2c34:	c6 43 03 00          	movb   $0x0,0x3(%rbx)
    2c38:	41 80 ff 99          	cmp    $0x99,%r15b
    2c3c:	76 ed                	jbe    2c2b <_ZN3CPU3daaEv+0x5b>
    2c3e:	41 8b 3e             	mov    (%r14),%edi
    2c41:	e8 0a fa 00 00       	call   12650 <_Z12get_low_bytej>
    2c46:	04 60                	add    $0x60,%al
    2c48:	0f b6 f0             	movzbl %al,%esi
    2c4b:	4c 89 f7             	mov    %r14,%rdi
    2c4e:	e8 ed f9 00 00       	call   12640 <_Z12set_low_byteRjh>
    2c53:	b0 01                	mov    $0x1,%al
    2c55:	88 03                	mov    %al,(%rbx)
    2c57:	48 83 c4 08          	add    $0x8,%rsp
    2c5b:	5b                   	pop    %rbx
    2c5c:	41 5e                	pop    %r14
    2c5e:	41 5f                	pop    %r15
    2c60:	5d                   	pop    %rbp
    2c61:	c3                   	ret    
    2c62:	66 2e 0f 1f 84 00 00 	cs nopw 0x0(%rax,%rax,1)
    2c69:	00 00 00 
    2c6c:	0f 1f 40 00          	nopl   0x0(%rax)

0000000000002c70 <_ZN3CPU3dasEv>:
    2c70:	55                   	push   %rbp
    2c71:	41 57                	push   %r15
    2c73:	41 56                	push   %r14
    2c75:	53                   	push   %rbx
    2c76:	50                   	push   %rax
    2c77:	48 89 fb             	mov    %rdi,%rbx
    2c7a:	4c 8d 77 20          	lea    0x20(%rdi),%r14
    2c7e:	8b 7f 20             	mov    0x20(%rdi),%edi
    2c81:	e8 ca f9 00 00       	call   12650 <_Z12get_low_bytej>
    2c86:	89 c5                	mov    %eax,%ebp
    2c88:	44 8a 3b             	mov    (%rbx),%r15b
    2c8b:	c6 03 00             	movb   $0x0,(%rbx)
    2c8e:	8b 7b 20             	mov    0x20(%rbx),%edi
    2c91:	e8 ba f9 00 00       	call   12650 <_Z12get_low_bytej>
    2c96:	24 0e                	and    $0xe,%al
    2c98:	3c 09                	cmp    $0x9,%al
    2c9a:	77 06                	ja     2ca2 <_ZN3CPU3dasEv+0x32>
    2c9c:	80 7b 03 00          	cmpb   $0x0,0x3(%rbx)
    2ca0:	74 56                	je     2cf8 <_ZN3CPU3dasEv+0x88>
    2ca2:	8b 7b 20             	mov    0x20(%rbx),%edi
    2ca5:	e8 a6 f9 00 00       	call   12650 <_Z12get_low_bytej>
    2caa:	04 fa                	add    $0xfa,%al
    2cac:	0f b6 f0             	movzbl %al,%esi
    2caf:	4c 89 f7             	mov    %r14,%rdi
    2cb2:	e8 89 f9 00 00       	call   12640 <_Z12set_low_byteRjh>
    2cb7:	40 0f b6 c5          	movzbl %bpl,%eax
    2cbb:	39 43 20             	cmp    %eax,0x20(%rbx)
    2cbe:	0f 97 c0             	seta   %al
    2cc1:	44 08 f8             	or     %r15b,%al
    2cc4:	88 03                	mov    %al,(%rbx)
    2cc6:	c6 43 03 01          	movb   $0x1,0x3(%rbx)
    2cca:	40 80 fd 99          	cmp    $0x99,%bpl
    2cce:	77 05                	ja     2cd5 <_ZN3CPU3dasEv+0x65>
    2cd0:	45 84 ff             	test   %r15b,%r15b
    2cd3:	74 18                	je     2ced <_ZN3CPU3dasEv+0x7d>
    2cd5:	8b 7b 20             	mov    0x20(%rbx),%edi
    2cd8:	e8 73 f9 00 00       	call   12650 <_Z12get_low_bytej>
    2cdd:	04 a0                	add    $0xa0,%al
    2cdf:	0f b6 f0             	movzbl %al,%esi
    2ce2:	4c 89 f7             	mov    %r14,%rdi
    2ce5:	e8 56 f9 00 00       	call   12640 <_Z12set_low_byteRjh>
    2cea:	c6 03 01             	movb   $0x1,(%rbx)
    2ced:	48 83 c4 08          	add    $0x8,%rsp
    2cf1:	5b                   	pop    %rbx
    2cf2:	41 5e                	pop    %r14
    2cf4:	41 5f                	pop    %r15
    2cf6:	5d                   	pop    %rbp
    2cf7:	c3                   	ret    
    2cf8:	c6 43 03 00          	movb   $0x0,0x3(%rbx)
    2cfc:	40 80 fd 99          	cmp    $0x99,%bpl
    2d00:	76 ce                	jbe    2cd0 <_ZN3CPU3dasEv+0x60>
    2d02:	eb d1                	jmp    2cd5 <_ZN3CPU3dasEv+0x65>
    2d04:	66 2e 0f 1f 84 00 00 	cs nopw 0x0(%rax,%rax,1)
    2d0b:	00 00 00 
    2d0e:	66 90                	xchg   %ax,%ax

0000000000002d10 <_ZN3CPU4dec8Eh>:
    2d10:	8d 46 ff             	lea    -0x1(%rsi),%eax
    2d13:	c3                   	ret    
    2d14:	66 2e 0f 1f 84 00 00 	cs nopw 0x0(%rax,%rax,1)
    2d1b:	00 00 00 
    2d1e:	66 90                	xchg   %ax,%ax

0000000000002d20 <_ZN3CPU5dec16Et>:
    2d20:	8d 46 ff             	lea    -0x1(%rsi),%eax
    2d23:	c3                   	ret    
    2d24:	66 2e 0f 1f 84 00 00 	cs nopw 0x0(%rax,%rax,1)
    2d2b:	00 00 00 
    2d2e:	66 90                	xchg   %ax,%ax

0000000000002d30 <_ZN3CPU5dec32Ej>:
    2d30:	8d 46 ff             	lea    -0x1(%rsi),%eax
    2d33:	c3                   	ret    
    2d34:	66 2e 0f 1f 84 00 00 	cs nopw 0x0(%rax,%rax,1)
    2d3b:	00 00 00 
    2d3e:	66 90                	xchg   %ax,%ax

0000000000002d40 <_ZN3CPU3hltEv>:
    2d40:	50                   	push   %rax
    2d41:	bf 01 00 00 00       	mov    $0x1,%edi
    2d46:	e8 65 f3 ff ff       	call   20b0 <__cxa_allocate_exception@plt>
    2d4b:	48 8d 35 0e 60 01 00 	lea    0x1600e(%rip),%rsi        # 18d60 <_ZTVN10__cxxabiv117__class_type_infoE@CXXABI_1.3>
    2d52:	48 89 c7             	mov    %rax,%rdi
    2d55:	31 d2                	xor    %edx,%edx
    2d57:	e8 64 f5 ff ff       	call   22c0 <__cxa_throw@plt>
    2d5c:	0f 1f 40 00          	nopl   0x0(%rax)

0000000000002d60 <_ZN3CPU4inc8Eh>:
    2d60:	8d 46 01             	lea    0x1(%rsi),%eax
    2d63:	c3                   	ret    
    2d64:	66 2e 0f 1f 84 00 00 	cs nopw 0x0(%rax,%rax,1)
    2d6b:	00 00 00 
    2d6e:	66 90                	xchg   %ax,%ax

0000000000002d70 <_ZN3CPU5inc16Et>:
    2d70:	8d 46 01             	lea    0x1(%rsi),%eax
    2d73:	c3                   	ret    
    2d74:	66 2e 0f 1f 84 00 00 	cs nopw 0x0(%rax,%rax,1)
    2d7b:	00 00 00 
    2d7e:	66 90                	xchg   %ax,%ax

0000000000002d80 <_ZN3CPU5inc32Ej>:
    2d80:	8d 46 01             	lea    0x1(%rsi),%eax
    2d83:	c3                   	ret    
    2d84:	66 2e 0f 1f 84 00 00 	cs nopw 0x0(%rax,%rax,1)
    2d8b:	00 00 00 
    2d8e:	66 90                	xchg   %ax,%ax

0000000000002d90 <_ZN3CPU4lahfEv>:
    2d90:	4c 8d 47 20          	lea    0x20(%rdi),%r8
    2d94:	8a 4f 05             	mov    0x5(%rdi),%cl
    2d97:	c0 e1 07             	shl    $0x7,%cl
    2d9a:	8a 57 04             	mov    0x4(%rdi),%dl
    2d9d:	c0 e2 06             	shl    $0x6,%dl
    2da0:	08 ca                	or     %cl,%dl
    2da2:	8a 4f 02             	mov    0x2(%rdi),%cl
    2da5:	8a 47 03             	mov    0x3(%rdi),%al
    2da8:	c0 e0 04             	shl    $0x4,%al
    2dab:	08 d0                	or     %dl,%al
    2dad:	c0 e1 02             	shl    $0x2,%cl
    2db0:	08 c1                	or     %al,%cl
    2db2:	0a 0f                	or     (%rdi),%cl
    2db4:	80 c9 02             	or     $0x2,%cl
    2db7:	0f b6 f1             	movzbl %cl,%esi
    2dba:	4c 89 c7             	mov    %r8,%rdi
    2dbd:	e9 be f8 00 00       	jmp    12680 <_Z22set_low_word_high_byteRjh>
    2dc2:	66 2e 0f 1f 84 00 00 	cs nopw 0x0(%rax,%rax,1)
    2dc9:	00 00 00 
    2dcc:	0f 1f 40 00          	nopl   0x0(%rax)

0000000000002dd0 <_ZN3CPU4mov8Ehh>:
    2dd0:	89 d0                	mov    %edx,%eax
    2dd2:	c3                   	ret    
    2dd3:	66 2e 0f 1f 84 00 00 	cs nopw 0x0(%rax,%rax,1)
    2dda:	00 00 00 
    2ddd:	0f 1f 00             	nopl   (%rax)

0000000000002de0 <_ZN3CPU5mov16Ett>:
    2de0:	89 d0                	mov    %edx,%eax
    2de2:	c3                   	ret    
    2de3:	66 2e 0f 1f 84 00 00 	cs nopw 0x0(%rax,%rax,1)
    2dea:	00 00 00 
    2ded:	0f 1f 00             	nopl   (%rax)

0000000000002df0 <_ZN3CPU5mov32Ejj>:
    2df0:	89 d0                	mov    %edx,%eax
    2df2:	c3                   	ret    
    2df3:	66 2e 0f 1f 84 00 00 	cs nopw 0x0(%rax,%rax,1)
    2dfa:	00 00 00 
    2dfd:	0f 1f 00             	nopl   (%rax)

0000000000002e00 <_ZN3CPU3or8Ehh>:
    2e00:	89 f0                	mov    %esi,%eax
    2e02:	09 d0                	or     %edx,%eax
    2e04:	c3                   	ret    
    2e05:	66 2e 0f 1f 84 00 00 	cs nopw 0x0(%rax,%rax,1)
    2e0c:	00 00 00 
    2e0f:	90                   	nop

0000000000002e10 <_ZN3CPU4or16Ett>:
    2e10:	89 f0                	mov    %esi,%eax
    2e12:	09 d0                	or     %edx,%eax
    2e14:	c3                   	ret    
    2e15:	66 2e 0f 1f 84 00 00 	cs nopw 0x0(%rax,%rax,1)
    2e1c:	00 00 00 
    2e1f:	90                   	nop

0000000000002e20 <_ZN3CPU4or32Ejj>:
    2e20:	89 f0                	mov    %esi,%eax
    2e22:	09 d0                	or     %edx,%eax
    2e24:	c3                   	ret    
    2e25:	66 2e 0f 1f 84 00 00 	cs nopw 0x0(%rax,%rax,1)
    2e2c:	00 00 00 
    2e2f:	90                   	nop

0000000000002e30 <_ZN3CPU4pop8Ev>:
    2e30:	8b 47 30             	mov    0x30(%rdi),%eax
    2e33:	8d 48 01             	lea    0x1(%rax),%ecx
    2e36:	89 4f 30             	mov    %ecx,0x30(%rdi)
    2e39:	48 8b 4f 40          	mov    0x40(%rdi),%rcx
    2e3d:	8a 04 01             	mov    (%rcx,%rax,1),%al
    2e40:	c3                   	ret    
    2e41:	66 2e 0f 1f 84 00 00 	cs nopw 0x0(%rax,%rax,1)
    2e48:	00 00 00 
    2e4b:	0f 1f 44 00 00       	nopl   0x0(%rax,%rax,1)

0000000000002e50 <_ZN3CPU5pop16Ev>:
    2e50:	8b 4f 30             	mov    0x30(%rdi),%ecx
    2e53:	48 8b 47 40          	mov    0x40(%rdi),%rax
    2e57:	0f b7 04 08          	movzwl (%rax,%rcx,1),%eax
    2e5b:	83 c1 02             	add    $0x2,%ecx
    2e5e:	89 4f 30             	mov    %ecx,0x30(%rdi)
    2e61:	c3                   	ret    
    2e62:	66 2e 0f 1f 84 00 00 	cs nopw 0x0(%rax,%rax,1)
    2e69:	00 00 00 
    2e6c:	0f 1f 40 00          	nopl   0x0(%rax)

0000000000002e70 <_ZN3CPU5pop32Ev>:
    2e70:	8b 4f 30             	mov    0x30(%rdi),%ecx
    2e73:	48 8b 47 40          	mov    0x40(%rdi),%rax
    2e77:	8b 04 08             	mov    (%rax,%rcx,1),%eax
    2e7a:	83 c1 04             	add    $0x4,%ecx
    2e7d:	89 4f 30             	mov    %ecx,0x30(%rdi)
    2e80:	c3                   	ret    
    2e81:	66 2e 0f 1f 84 00 00 	cs nopw 0x0(%rax,%rax,1)
    2e88:	00 00 00 
    2e8b:	0f 1f 44 00 00       	nopl   0x0(%rax,%rax,1)

0000000000002e90 <_ZN3CPU4popaEv>:
    2e90:	53                   	push   %rbx
    2e91:	48 89 fb             	mov    %rdi,%rbx
    2e94:	48 83 c7 20          	add    $0x20,%rdi
    2e98:	8b 43 30             	mov    0x30(%rbx),%eax
    2e9b:	48 8b 4b 40          	mov    0x40(%rbx),%rcx
    2e9f:	0f b7 34 01          	movzwl (%rcx,%rax,1),%esi
    2ea3:	83 c0 02             	add    $0x2,%eax
    2ea6:	89 43 30             	mov    %eax,0x30(%rbx)
    2ea9:	e8 b2 f7 00 00       	call   12660 <_Z12set_low_wordRjt>
    2eae:	48 8d 7b 24          	lea    0x24(%rbx),%rdi
    2eb2:	8b 43 30             	mov    0x30(%rbx),%eax
    2eb5:	48 8b 4b 40          	mov    0x40(%rbx),%rcx
    2eb9:	0f b7 34 01          	movzwl (%rcx,%rax,1),%esi
    2ebd:	83 c0 02             	add    $0x2,%eax
    2ec0:	89 43 30             	mov    %eax,0x30(%rbx)
    2ec3:	e8 98 f7 00 00       	call   12660 <_Z12set_low_wordRjt>
    2ec8:	48 8d 7b 28          	lea    0x28(%rbx),%rdi
    2ecc:	8b 43 30             	mov    0x30(%rbx),%eax
    2ecf:	48 8b 4b 40          	mov    0x40(%rbx),%rcx
    2ed3:	0f b7 34 01          	movzwl (%rcx,%rax,1),%esi
    2ed7:	83 c0 02             	add    $0x2,%eax
    2eda:	89 43 30             	mov    %eax,0x30(%rbx)
    2edd:	e8 7e f7 00 00       	call   12660 <_Z12set_low_wordRjt>
    2ee2:	48 8d 7b 2c          	lea    0x2c(%rbx),%rdi
    2ee6:	8b 43 30             	mov    0x30(%rbx),%eax
    2ee9:	48 8b 4b 40          	mov    0x40(%rbx),%rcx
    2eed:	0f b7 34 01          	movzwl (%rcx,%rax,1),%esi
    2ef1:	83 c0 02             	add    $0x2,%eax
    2ef4:	89 43 30             	mov    %eax,0x30(%rbx)
    2ef7:	e8 64 f7 00 00       	call   12660 <_Z12set_low_wordRjt>
    2efc:	8b 43 30             	mov    0x30(%rbx),%eax
    2eff:	8d 48 02             	lea    0x2(%rax),%ecx
    2f02:	89 4b 30             	mov    %ecx,0x30(%rbx)
    2f05:	48 8d 7b 34          	lea    0x34(%rbx),%rdi
    2f09:	48 8b 53 40          	mov    0x40(%rbx),%rdx
    2f0d:	0f b7 34 0a          	movzwl (%rdx,%rcx,1),%esi
    2f11:	83 c0 04             	add    $0x4,%eax
    2f14:	89 43 30             	mov    %eax,0x30(%rbx)
    2f17:	e8 44 f7 00 00       	call   12660 <_Z12set_low_wordRjt>
    2f1c:	48 8d 7b 38          	lea    0x38(%rbx),%rdi
    2f20:	8b 43 30             	mov    0x30(%rbx),%eax
    2f23:	48 8b 4b 40          	mov    0x40(%rbx),%rcx
    2f27:	0f b7 34 01          	movzwl (%rcx,%rax,1),%esi
    2f2b:	83 c0 02             	add    $0x2,%eax
    2f2e:	89 43 30             	mov    %eax,0x30(%rbx)
    2f31:	e8 2a f7 00 00       	call   12660 <_Z12set_low_wordRjt>
    2f36:	48 8d 7b 3c          	lea    0x3c(%rbx),%rdi
    2f3a:	8b 43 30             	mov    0x30(%rbx),%eax
    2f3d:	48 8b 4b 40          	mov    0x40(%rbx),%rcx
    2f41:	0f b7 34 01          	movzwl (%rcx,%rax,1),%esi
    2f45:	83 c0 02             	add    $0x2,%eax
    2f48:	89 43 30             	mov    %eax,0x30(%rbx)
    2f4b:	5b                   	pop    %rbx
    2f4c:	e9 0f f7 00 00       	jmp    12660 <_Z12set_low_wordRjt>
    2f51:	66 2e 0f 1f 84 00 00 	cs nopw 0x0(%rax,%rax,1)
    2f58:	00 00 00 
    2f5b:	0f 1f 44 00 00       	nopl   0x0(%rax,%rax,1)

0000000000002f60 <_ZN3CPU5popadEv>:
    2f60:	48 8b 4f 40          	mov    0x40(%rdi),%rcx
    2f64:	8b 47 30             	mov    0x30(%rdi),%eax
    2f67:	8b 14 01             	mov    (%rcx,%rax,1),%edx
    2f6a:	8d 70 04             	lea    0x4(%rax),%esi
    2f6d:	89 77 30             	mov    %esi,0x30(%rdi)
    2f70:	89 57 20             	mov    %edx,0x20(%rdi)
    2f73:	8b 14 31             	mov    (%rcx,%rsi,1),%edx
    2f76:	8d 70 08             	lea    0x8(%rax),%esi
    2f79:	89 77 30             	mov    %esi,0x30(%rdi)
    2f7c:	89 57 24             	mov    %edx,0x24(%rdi)
    2f7f:	8b 14 31             	mov    (%rcx,%rsi,1),%edx
    2f82:	8d 70 0c             	lea    0xc(%rax),%esi
    2f85:	89 77 30             	mov    %esi,0x30(%rdi)
    2f88:	89 57 28             	mov    %edx,0x28(%rdi)
    2f8b:	8b 14 31             	mov    (%rcx,%rsi,1),%edx
    2f8e:	89 57 2c             	mov    %edx,0x2c(%rdi)
    2f91:	8d 50 14             	lea    0x14(%rax),%edx
    2f94:	89 57 30             	mov    %edx,0x30(%rdi)
    2f97:	8b 14 11             	mov    (%rcx,%rdx,1),%edx
    2f9a:	8d 70 18             	lea    0x18(%rax),%esi
    2f9d:	89 77 30             	mov    %esi,0x30(%rdi)
    2fa0:	89 57 34             	mov    %edx,0x34(%rdi)
    2fa3:	8b 14 31             	mov    (%rcx,%rsi,1),%edx
    2fa6:	8d 70 1c             	lea    0x1c(%rax),%esi
    2fa9:	89 77 30             	mov    %esi,0x30(%rdi)
    2fac:	89 57 38             	mov    %edx,0x38(%rdi)
    2faf:	8b 0c 31             	mov    (%rcx,%rsi,1),%ecx
    2fb2:	83 c0 20             	add    $0x20,%eax
    2fb5:	89 47 30             	mov    %eax,0x30(%rdi)
    2fb8:	89 4f 3c             	mov    %ecx,0x3c(%rdi)
    2fbb:	c3                   	ret    
    2fbc:	0f 1f 40 00          	nopl   0x0(%rax)

0000000000002fc0 <_ZN3CPU5push8Eh>:
    2fc0:	8b 47 30             	mov    0x30(%rdi),%eax
    2fc3:	8d 48 ff             	lea    -0x1(%rax),%ecx
    2fc6:	89 4f 30             	mov    %ecx,0x30(%rdi)
    2fc9:	48 8b 4f 40          	mov    0x40(%rdi),%rcx
    2fcd:	40 88 34 01          	mov    %sil,(%rcx,%rax,1)
    2fd1:	c3                   	ret    
    2fd2:	66 2e 0f 1f 84 00 00 	cs nopw 0x0(%rax,%rax,1)
    2fd9:	00 00 00 
    2fdc:	0f 1f 40 00          	nopl   0x0(%rax)

0000000000002fe0 <_ZN3CPU6push16Et>:
    2fe0:	8b 47 30             	mov    0x30(%rdi),%eax
    2fe3:	48 8b 4f 40          	mov    0x40(%rdi),%rcx
    2fe7:	66 89 34 01          	mov    %si,(%rcx,%rax,1)
    2feb:	83 47 30 fe          	addl   $0xfffffffe,0x30(%rdi)
    2fef:	c3                   	ret    

0000000000002ff0 <_ZN3CPU6push32Ej>:
    2ff0:	8b 47 30             	mov    0x30(%rdi),%eax
    2ff3:	48 8b 4f 40          	mov    0x40(%rdi),%rcx
    2ff7:	89 34 01             	mov    %esi,(%rcx,%rax,1)
    2ffa:	83 47 30 fc          	addl   $0xfffffffc,0x30(%rdi)
    2ffe:	c3                   	ret    
    2fff:	90                   	nop

0000000000003000 <_ZN3CPU5pushaEv>:
    3000:	55                   	push   %rbp
    3001:	53                   	push   %rbx
    3002:	50                   	push   %rax
    3003:	48 89 fb             	mov    %rdi,%rbx
    3006:	8b 7f 30             	mov    0x30(%rdi),%edi
    3009:	e8 62 f6 00 00       	call   12670 <_Z12get_low_wordj>
    300e:	89 c5                	mov    %eax,%ebp
    3010:	8b 7b 20             	mov    0x20(%rbx),%edi
    3013:	e8 58 f6 00 00       	call   12670 <_Z12get_low_wordj>
    3018:	8b 4b 30             	mov    0x30(%rbx),%ecx
    301b:	48 8b 53 40          	mov    0x40(%rbx),%rdx
    301f:	66 89 04 0a          	mov    %ax,(%rdx,%rcx,1)
    3023:	83 43 30 fe          	addl   $0xfffffffe,0x30(%rbx)
    3027:	8b 7b 24             	mov    0x24(%rbx),%edi
    302a:	e8 41 f6 00 00       	call   12670 <_Z12get_low_wordj>
    302f:	8b 4b 30             	mov    0x30(%rbx),%ecx
    3032:	48 8b 53 40          	mov    0x40(%rbx),%rdx
    3036:	66 89 04 0a          	mov    %ax,(%rdx,%rcx,1)
    303a:	83 43 30 fe          	addl   $0xfffffffe,0x30(%rbx)
    303e:	8b 7b 28             	mov    0x28(%rbx),%edi
    3041:	e8 2a f6 00 00       	call   12670 <_Z12get_low_wordj>
    3046:	8b 4b 30             	mov    0x30(%rbx),%ecx
    3049:	48 8b 53 40          	mov    0x40(%rbx),%rdx
    304d:	66 89 04 0a          	mov    %ax,(%rdx,%rcx,1)
    3051:	83 43 30 fe          	addl   $0xfffffffe,0x30(%rbx)
    3055:	8b 7b 2c             	mov    0x2c(%rbx),%edi
    3058:	e8 13 f6 00 00       	call   12670 <_Z12get_low_wordj>
    305d:	8b 4b 30             	mov    0x30(%rbx),%ecx
    3060:	48 8b 53 40          	mov    0x40(%rbx),%rdx
    3064:	66 89 04 0a          	mov    %ax,(%rdx,%rcx,1)
    3068:	8b 43 30             	mov    0x30(%rbx),%eax
    306b:	83 c0 fe             	add    $0xfffffffe,%eax
    306e:	89 43 30             	mov    %eax,0x30(%rbx)
    3071:	48 8b 4b 40          	mov    0x40(%rbx),%rcx
    3075:	66 89 2c 01          	mov    %bp,(%rcx,%rax,1)
    3079:	83 43 30 fe          	addl   $0xfffffffe,0x30(%rbx)
    307d:	8b 7b 34             	mov    0x34(%rbx),%edi
    3080:	e8 eb f5 00 00       	call   12670 <_Z12get_low_wordj>
    3085:	8b 4b 30             	mov    0x30(%rbx),%ecx
    3088:	48 8b 53 40          	mov    0x40(%rbx),%rdx
    308c:	66 89 04 0a          	mov    %ax,(%rdx,%rcx,1)
    3090:	83 43 30 fe          	addl   $0xfffffffe,0x30(%rbx)
    3094:	8b 7b 38             	mov    0x38(%rbx),%edi
    3097:	e8 d4 f5 00 00       	call   12670 <_Z12get_low_wordj>
    309c:	8b 4b 30             	mov    0x30(%rbx),%ecx
    309f:	48 8b 53 40          	mov    0x40(%rbx),%rdx
    30a3:	66 89 04 0a          	mov    %ax,(%rdx,%rcx,1)
    30a7:	83 43 30 fe          	addl   $0xfffffffe,0x30(%rbx)
    30ab:	8b 7b 3c             	mov    0x3c(%rbx),%edi
    30ae:	e8 bd f5 00 00       	call   12670 <_Z12get_low_wordj>
    30b3:	8b 4b 30             	mov    0x30(%rbx),%ecx
    30b6:	48 8b 53 40          	mov    0x40(%rbx),%rdx
    30ba:	66 89 04 0a          	mov    %ax,(%rdx,%rcx,1)
    30be:	83 43 30 fe          	addl   $0xfffffffe,0x30(%rbx)
    30c2:	48 83 c4 08          	add    $0x8,%rsp
    30c6:	5b                   	pop    %rbx
    30c7:	5d                   	pop    %rbp
    30c8:	c3                   	ret    
    30c9:	0f 1f 80 00 00 00 00 	nopl   0x0(%rax)

00000000000030d0 <_ZN3CPU6pushadEv>:
    30d0:	8b 4f 20             	mov    0x20(%rdi),%ecx
    30d3:	8b 47 30             	mov    0x30(%rdi),%eax
    30d6:	48 8b 57 40          	mov    0x40(%rdi),%rdx
    30da:	89 0c 02             	mov    %ecx,(%rdx,%rax,1)
    30dd:	8b 4f 24             	mov    0x24(%rdi),%ecx
    30e0:	8b 57 30             	mov    0x30(%rdi),%edx
    30e3:	83 c2 fc             	add    $0xfffffffc,%edx
    30e6:	89 57 30             	mov    %edx,0x30(%rdi)
    30e9:	48 8b 77 40          	mov    0x40(%rdi),%rsi
    30ed:	89 0c 16             	mov    %ecx,(%rsi,%rdx,1)
    30f0:	8b 4f 28             	mov    0x28(%rdi),%ecx
    30f3:	8b 57 30             	mov    0x30(%rdi),%edx
    30f6:	83 c2 fc             	add    $0xfffffffc,%edx
    30f9:	89 57 30             	mov    %edx,0x30(%rdi)
    30fc:	48 8b 77 40          	mov    0x40(%rdi),%rsi
    3100:	89 0c 16             	mov    %ecx,(%rsi,%rdx,1)
    3103:	8b 4f 2c             	mov    0x2c(%rdi),%ecx
    3106:	8b 57 30             	mov    0x30(%rdi),%edx
    3109:	83 c2 fc             	add    $0xfffffffc,%edx
    310c:	89 57 30             	mov    %edx,0x30(%rdi)
    310f:	48 8b 77 40          	mov    0x40(%rdi),%rsi
    3113:	89 0c 16             	mov    %ecx,(%rsi,%rdx,1)
    3116:	8b 4f 30             	mov    0x30(%rdi),%ecx
    3119:	83 c1 fc             	add    $0xfffffffc,%ecx
    311c:	89 4f 30             	mov    %ecx,0x30(%rdi)
    311f:	48 8b 57 40          	mov    0x40(%rdi),%rdx
    3123:	89 04 0a             	mov    %eax,(%rdx,%rcx,1)
    3126:	8b 47 30             	mov    0x30(%rdi),%eax
    3129:	8b 4f 34             	mov    0x34(%rdi),%ecx
    312c:	83 c0 fc             	add    $0xfffffffc,%eax
    312f:	89 47 30             	mov    %eax,0x30(%rdi)
    3132:	48 8b 57 40          	mov    0x40(%rdi),%rdx
    3136:	89 0c 02             	mov    %ecx,(%rdx,%rax,1)
    3139:	8b 47 30             	mov    0x30(%rdi),%eax
    313c:	8b 4f 38             	mov    0x38(%rdi),%ecx
    313f:	83 c0 fc             	add    $0xfffffffc,%eax
    3142:	89 47 30             	mov    %eax,0x30(%rdi)
    3145:	48 8b 57 40          	mov    0x40(%rdi),%rdx
    3149:	89 0c 02             	mov    %ecx,(%rdx,%rax,1)
    314c:	8b 47 30             	mov    0x30(%rdi),%eax
    314f:	8b 4f 3c             	mov    0x3c(%rdi),%ecx
    3152:	83 c0 fc             	add    $0xfffffffc,%eax
    3155:	89 47 30             	mov    %eax,0x30(%rdi)
    3158:	48 8b 57 40          	mov    0x40(%rdi),%rdx
    315c:	89 0c 02             	mov    %ecx,(%rdx,%rax,1)
    315f:	83 47 30 fc          	addl   $0xfffffffc,0x30(%rdi)
    3163:	c3                   	ret    
    3164:	66 2e 0f 1f 84 00 00 	cs nopw 0x0(%rax,%rax,1)
    316b:	00 00 00 
    316e:	66 90                	xchg   %ax,%ax

0000000000003170 <_ZN3CPU4sahfEv>:
    3170:	53                   	push   %rbx
    3171:	48 89 fb             	mov    %rdi,%rbx
    3174:	8b 7f 20             	mov    0x20(%rdi),%edi
    3177:	e8 d4 f4 00 00       	call   12650 <_Z12get_low_bytej>
    317c:	89 c1                	mov    %eax,%ecx
    317e:	c0 e9 07             	shr    $0x7,%cl
    3181:	88 4b 05             	mov    %cl,0x5(%rbx)
    3184:	89 c1                	mov    %eax,%ecx
    3186:	c0 e9 06             	shr    $0x6,%cl
    3189:	80 e1 01             	and    $0x1,%cl
    318c:	88 4b 04             	mov    %cl,0x4(%rbx)
    318f:	89 c1                	mov    %eax,%ecx
    3191:	c0 e9 04             	shr    $0x4,%cl
    3194:	80 e1 01             	and    $0x1,%cl
    3197:	88 4b 03             	mov    %cl,0x3(%rbx)
    319a:	89 c1                	mov    %eax,%ecx
    319c:	c0 e9 02             	shr    $0x2,%cl
    319f:	80 e1 01             	and    $0x1,%cl
    31a2:	88 4b 02             	mov    %cl,0x2(%rbx)
    31a5:	24 01                	and    $0x1,%al
    31a7:	88 03                	mov    %al,(%rbx)
    31a9:	5b                   	pop    %rbx
    31aa:	c3                   	ret    
    31ab:	0f 1f 44 00 00       	nopl   0x0(%rax,%rax,1)

00000000000031b0 <_ZN3CPU4salcEv>:
    31b0:	31 c0                	xor    %eax,%eax
    31b2:	2a 07                	sub    (%rdi),%al
    31b4:	48 83 c7 20          	add    $0x20,%rdi
    31b8:	0f b6 f0             	movzbl %al,%esi
    31bb:	e9 80 f4 00 00       	jmp    12640 <_Z12set_low_byteRjh>

00000000000031c0 <_ZN3CPU4sbb8Ehh>:
    31c0:	89 f0                	mov    %esi,%eax
    31c2:	02 17                	add    (%rdi),%dl
    31c4:	28 d0                	sub    %dl,%al
    31c6:	c3                   	ret    
    31c7:	66 0f 1f 84 00 00 00 	nopw   0x0(%rax,%rax,1)
    31ce:	00 00 

00000000000031d0 <_ZN3CPU5sbb16Ett>:
    31d0:	89 f0                	mov    %esi,%eax
    31d2:	0f b6 0f             	movzbl (%rdi),%ecx
    31d5:	01 d1                	add    %edx,%ecx
    31d7:	29 c8                	sub    %ecx,%eax
    31d9:	c3                   	ret    
    31da:	66 0f 1f 44 00 00    	nopw   0x0(%rax,%rax,1)

00000000000031e0 <_ZN3CPU5sbb32Ejj>:
    31e0:	89 f0                	mov    %esi,%eax
    31e2:	0f b6 0f             	movzbl (%rdi),%ecx
    31e5:	01 d1                	add    %edx,%ecx
    31e7:	29 c8                	sub    %ecx,%eax
    31e9:	c3                   	ret    
    31ea:	66 0f 1f 44 00 00    	nopw   0x0(%rax,%rax,1)

00000000000031f0 <_ZN3CPU4sub8Ehh>:
    31f0:	89 f0                	mov    %esi,%eax
    31f2:	28 d0                	sub    %dl,%al
    31f4:	c3                   	ret    
    31f5:	66 2e 0f 1f 84 00 00 	cs nopw 0x0(%rax,%rax,1)
    31fc:	00 00 00 
    31ff:	90                   	nop

0000000000003200 <_ZN3CPU5sub16Ett>:
    3200:	89 f0                	mov    %esi,%eax
    3202:	29 d0                	sub    %edx,%eax
    3204:	c3                   	ret    
    3205:	66 2e 0f 1f 84 00 00 	cs nopw 0x0(%rax,%rax,1)
    320c:	00 00 00 
    320f:	90                   	nop

0000000000003210 <_ZN3CPU5sub32Ejj>:
    3210:	89 f0                	mov    %esi,%eax
    3212:	29 d0                	sub    %edx,%eax
    3214:	c3                   	ret    
    3215:	66 2e 0f 1f 84 00 00 	cs nopw 0x0(%rax,%rax,1)
    321c:	00 00 00 
    321f:	90                   	nop

0000000000003220 <_ZN3CPU4xor8Ehh>:
    3220:	89 f0                	mov    %esi,%eax
    3222:	31 d0                	xor    %edx,%eax
    3224:	c3                   	ret    
    3225:	66 2e 0f 1f 84 00 00 	cs nopw 0x0(%rax,%rax,1)
    322c:	00 00 00 
    322f:	90                   	nop

0000000000003230 <_ZN3CPU5xor16Ett>:
    3230:	89 f0                	mov    %esi,%eax
    3232:	31 d0                	xor    %edx,%eax
    3234:	c3                   	ret    
    3235:	66 2e 0f 1f 84 00 00 	cs nopw 0x0(%rax,%rax,1)
    323c:	00 00 00 
    323f:	90                   	nop

0000000000003240 <_ZN3CPU5xor32Ejj>:
    3240:	89 f0                	mov    %esi,%eax
    3242:	31 d0                	xor    %edx,%eax
    3244:	c3                   	ret    
    3245:	66 2e 0f 1f 84 00 00 	cs nopw 0x0(%rax,%rax,1)
    324c:	00 00 00 
    324f:	90                   	nop

0000000000003250 <_ZN3CPU3stcEv>:
    3250:	c6 07 01             	movb   $0x1,(%rdi)
    3253:	c3                   	ret    
    3254:	66 2e 0f 1f 84 00 00 	cs nopw 0x0(%rax,%rax,1)
    325b:	00 00 00 
    325e:	66 90                	xchg   %ax,%ax

0000000000003260 <_ZN3CPU3stdEv>:
    3260:	c6 47 01 01          	movb   $0x1,0x1(%rdi)
    3264:	c3                   	ret    
    3265:	66 2e 0f 1f 84 00 00 	cs nopw 0x0(%rax,%rax,1)
    326c:	00 00 00 
    326f:	90                   	nop

0000000000003270 <_ZN3CPU5rdtscEv>:
    3270:	53                   	push   %rbx
    3271:	48 89 fb             	mov    %rdi,%rbx
    3274:	48 8b 7f 18          	mov    0x18(%rdi),%rdi
    3278:	e8 23 f4 00 00       	call   126a0 <_Z10high_dwordm>
    327d:	89 43 28             	mov    %eax,0x28(%rbx)
    3280:	48 8b 7b 18          	mov    0x18(%rbx),%rdi
    3284:	e8 27 f4 00 00       	call   126b0 <_Z9low_dwordm>
    3289:	89 43 20             	mov    %eax,0x20(%rbx)
    328c:	5b                   	pop    %rbx
    328d:	c3                   	ret    
    328e:	66 90                	xchg   %ax,%ax

0000000000003290 <_ZN3CPU4xchgERj>:
    3290:	8b 47 20             	mov    0x20(%rdi),%eax
    3293:	8b 0e                	mov    (%rsi),%ecx
    3295:	89 4f 20             	mov    %ecx,0x20(%rdi)
    3298:	89 06                	mov    %eax,(%rsi)
    329a:	c3                   	ret    
    329b:	0f 1f 44 00 00       	nopl   0x0(%rax,%rax,1)

00000000000032a0 <_ZN3CPU4xlatEv>:
    32a0:	41 56                	push   %r14
    32a2:	53                   	push   %rbx
    32a3:	50                   	push   %rax
    32a4:	48 89 fb             	mov    %rdi,%rbx
    32a7:	4c 8d 77 20          	lea    0x20(%rdi),%r14
    32ab:	8b 7f 20             	mov    0x20(%rdi),%edi
    32ae:	e8 9d f3 00 00       	call   12650 <_Z12get_low_bytej>
    32b3:	0f b6 c0             	movzbl %al,%eax
    32b6:	03 43 2c             	add    0x2c(%rbx),%eax
    32b9:	48 8b 4b 40          	mov    0x40(%rbx),%rcx
    32bd:	0f b6 34 01          	movzbl (%rcx,%rax,1),%esi
    32c1:	4c 89 f7             	mov    %r14,%rdi
    32c4:	48 83 c4 08          	add    $0x8,%rsp
    32c8:	5b                   	pop    %rbx
    32c9:	41 5e                	pop    %r14
    32cb:	e9 70 f3 00 00       	jmp    12640 <_Z12set_low_byteRjh>

00000000000032d0 <_ZN8Executor51execute_binary_accumulator_immediate_operation_8bitERmM3CPUFhhhE>:
    32d0:	55                   	push   %rbp
    32d1:	41 57                	push   %r15
    32d3:	41 56                	push   %r14
    32d5:	41 54                	push   %r12
    32d7:	53                   	push   %rbx
    32d8:	48 89 cb             	mov    %rcx,%rbx
    32db:	49 89 d4             	mov    %rdx,%r12
    32de:	49 89 f6             	mov    %rsi,%r14
    32e1:	48 8b 06             	mov    (%rsi),%rax
    32e4:	48 8b 4f 40          	mov    0x40(%rdi),%rcx
    32e8:	40 8a 6c 08 01       	mov    0x1(%rax,%rcx,1),%bpl
    32ed:	4c 8d 7f 20          	lea    0x20(%rdi),%r15
    32f1:	48 01 fb             	add    %rdi,%rbx
    32f4:	41 f6 c4 01          	test   $0x1,%r12b
    32f8:	74 08                	je     3302 <_ZN8Executor51execute_binary_accumulator_immediate_operation_8bitERmM3CPUFhhhE+0x32>
    32fa:	48 8b 03             	mov    (%rbx),%rax
    32fd:	4d 8b 64 04 ff       	mov    -0x1(%r12,%rax,1),%r12
    3302:	41 8b 3f             	mov    (%r15),%edi
    3305:	e8 46 f3 00 00       	call   12650 <_Z12get_low_bytej>
    330a:	40 0f b6 d5          	movzbl %bpl,%edx
    330e:	0f b6 f0             	movzbl %al,%esi
    3311:	48 89 df             	mov    %rbx,%rdi
    3314:	41 ff d4             	call   *%r12
    3317:	0f b6 f0             	movzbl %al,%esi
    331a:	4c 89 ff             	mov    %r15,%rdi
    331d:	e8 1e f3 00 00       	call   12640 <_Z12set_low_byteRjh>
    3322:	49 83 06 02          	addq   $0x2,(%r14)
    3326:	5b                   	pop    %rbx
    3327:	41 5c                	pop    %r12
    3329:	41 5e                	pop    %r14
    332b:	41 5f                	pop    %r15
    332d:	5d                   	pop    %rbp
    332e:	c3                   	ret    
    332f:	90                   	nop

0000000000003330 <_ZN8Executor55execute_binary_accumulator_immediate_operation_16_32bitERmM3CPUFtttEMS1_FjjjE>:
    3330:	55                   	push   %rbp
    3331:	41 57                	push   %r15
    3333:	41 56                	push   %r14
    3335:	41 55                	push   %r13
    3337:	41 54                	push   %r12
    3339:	53                   	push   %rbx
    333a:	50                   	push   %rax
    333b:	49 89 cc             	mov    %rcx,%r12
    333e:	49 89 f6             	mov    %rsi,%r14
    3341:	48 89 fb             	mov    %rdi,%rbx
    3344:	80 bf 10 01 00 00 00 	cmpb   $0x0,0x110(%rdi)
    334b:	48 8b 06             	mov    (%rsi),%rax
    334e:	48 8b 4f 40          	mov    0x40(%rdi),%rcx
    3352:	74 45                	je     3399 <_ZN8Executor55execute_binary_accumulator_immediate_operation_16_32bitERmM3CPUFtttEMS1_FjjjE+0x69>
    3354:	49 89 d7             	mov    %rdx,%r15
    3357:	0f b7 6c 01 01       	movzwl 0x1(%rcx,%rax,1),%ebp
    335c:	4c 8d 6b 20          	lea    0x20(%rbx),%r13
    3360:	49 01 dc             	add    %rbx,%r12
    3363:	41 f6 c7 01          	test   $0x1,%r15b
    3367:	74 09                	je     3372 <_ZN8Executor55execute_binary_accumulator_immediate_operation_16_32bitERmM3CPUFtttEMS1_FjjjE+0x42>
    3369:	49 8b 04 24          	mov    (%r12),%rax
    336d:	4d 8b 7c 07 ff       	mov    -0x1(%r15,%rax,1),%r15
    3372:	41 8b 7d 00          	mov    0x0(%r13),%edi
    3376:	e8 f5 f2 00 00       	call   12670 <_Z12get_low_wordj>
    337b:	0f b7 d5             	movzwl %bp,%edx
    337e:	0f b7 f0             	movzwl %ax,%esi
    3381:	4c 89 e7             	mov    %r12,%rdi
    3384:	41 ff d7             	call   *%r15
    3387:	0f b7 f0             	movzwl %ax,%esi
    338a:	4c 89 ef             	mov    %r13,%rdi
    338d:	e8 ce f2 00 00       	call   12660 <_Z12set_low_wordRjt>
    3392:	b8 03 00 00 00       	mov    $0x3,%eax
    3397:	eb 26                	jmp    33bf <_ZN8Executor55execute_binary_accumulator_immediate_operation_16_32bitERmM3CPUFtttEMS1_FjjjE+0x8f>
    3399:	8b 54 01 01          	mov    0x1(%rcx,%rax,1),%edx
    339d:	49 01 d9             	add    %rbx,%r9
    33a0:	41 f6 c0 01          	test   $0x1,%r8b
    33a4:	74 08                	je     33ae <_ZN8Executor55execute_binary_accumulator_immediate_operation_16_32bitERmM3CPUFtttEMS1_FjjjE+0x7e>
    33a6:	49 8b 01             	mov    (%r9),%rax
    33a9:	4d 8b 44 00 ff       	mov    -0x1(%r8,%rax,1),%r8
    33ae:	8b 73 20             	mov    0x20(%rbx),%esi
    33b1:	4c 89 cf             	mov    %r9,%rdi
    33b4:	41 ff d0             	call   *%r8
    33b7:	89 43 20             	mov    %eax,0x20(%rbx)
    33ba:	b8 05 00 00 00       	mov    $0x5,%eax
    33bf:	49 01 06             	add    %rax,(%r14)
    33c2:	48 83 c4 08          	add    $0x8,%rsp
    33c6:	5b                   	pop    %rbx
    33c7:	41 5c                	pop    %r12
    33c9:	41 5d                	pop    %r13
    33cb:	41 5e                	pop    %r14
    33cd:	41 5f                	pop    %r15
    33cf:	5d                   	pop    %rbp
    33d0:	c3                   	ret    
    33d1:	66 2e 0f 1f 84 00 00 	cs nopw 0x0(%rax,%rax,1)
    33d8:	00 00 00 
    33db:	0f 1f 44 00 00       	nopl   0x0(%rax,%rax,1)

00000000000033e0 <_ZN8Executor50execute_binary_immediate_regencoded_operation_8bitERm>:
    33e0:	41 57                	push   %r15
    33e2:	41 56                	push   %r14
    33e4:	53                   	push   %rbx
    33e5:	48 83 ec 60          	sub    $0x60,%rsp
    33e9:	49 89 f6             	mov    %rsi,%r14
    33ec:	49 89 ff             	mov    %rdi,%r15
    33ef:	48 8d 5f 40          	lea    0x40(%rdi),%rbx
    33f3:	48 8b 0e             	mov    (%rsi),%rcx
    33f6:	48 8b 47 40          	mov    0x40(%rdi),%rax
    33fa:	0f b6 74 01 01       	movzbl 0x1(%rcx,%rax,1),%esi
    33ff:	48 8d 7c 24 38       	lea    0x38(%rsp),%rdi
    3404:	48 89 da             	mov    %rbx,%rdx
    3407:	41 b8 01 00 00 00    	mov    $0x1,%r8d
    340d:	e8 fe ca 00 00       	call   ff10 <_Z15decode_modregrmhR6Memorymb>
    3412:	48 8d 4c 24 3c       	lea    0x3c(%rsp),%rcx
    3417:	49 8d 77 20          	lea    0x20(%r15),%rsi
    341b:	48 8d 7c 24 08       	lea    0x8(%rsp),%rdi
    3420:	48 89 da             	mov    %rbx,%rdx
    3423:	e8 d8 bb 00 00       	call   f000 <_Z24structure_unary_operandsIhE23StructuredUnaryOperandsIT_ERA8_jR6MemoryRK8Operands>
    3428:	8b 4c 24 38          	mov    0x38(%rsp),%ecx
    342c:	49 03 0e             	add    (%r14),%rcx
    342f:	49 89 0e             	mov    %rcx,(%r14)
    3432:	8b 74 24 58          	mov    0x58(%rsp),%esi
    3436:	48 83 fe 07          	cmp    $0x7,%rsi
    343a:	0f 87 10 01 00 00    	ja     3550 <_ZN8Executor50execute_binary_immediate_regencoded_operation_8bitERm+0x170>
    3440:	49 8b 57 40          	mov    0x40(%r15),%rdx
    3444:	48 8d 05 f5 f5 ff ff 	lea    -0xa0b(%rip),%rax        # 2a40 <_ZN3CPU4add8Ehh>
    344b:	48 8d 3d fa fb 00 00 	lea    0xfbfa(%rip),%rdi        # 1304c <_ZTS8CPU_HALT+0xc>
    3452:	48 63 34 b7          	movslq (%rdi,%rsi,4),%rsi
    3456:	48 01 fe             	add    %rdi,%rsi
    3459:	ff e6                	jmp    *%rsi
    345b:	48 8d 05 9e f9 ff ff 	lea    -0x662(%rip),%rax        # 2e00 <_ZN3CPU3or8Ehh>
    3462:	8a 0c 0a             	mov    (%rdx,%rcx,1),%cl
    3465:	80 7c 24 30 00       	cmpb   $0x0,0x30(%rsp)
    346a:	75 68                	jne    34d4 <_ZN8Executor50execute_binary_immediate_regencoded_operation_8bitERm+0xf4>
    346c:	e9 be 00 00 00       	jmp    352f <_ZN8Executor50execute_binary_immediate_regencoded_operation_8bitERm+0x14f>
    3471:	48 8d 05 f8 f5 ff ff 	lea    -0xa08(%rip),%rax        # 2a70 <_ZN3CPU4and8Ehh>
    3478:	8a 0c 0a             	mov    (%rdx,%rcx,1),%cl
    347b:	80 7c 24 30 00       	cmpb   $0x0,0x30(%rsp)
    3480:	75 52                	jne    34d4 <_ZN8Executor50execute_binary_immediate_regencoded_operation_8bitERm+0xf4>
    3482:	e9 a8 00 00 00       	jmp    352f <_ZN8Executor50execute_binary_immediate_regencoded_operation_8bitERm+0x14f>
    3487:	48 8d 05 82 f5 ff ff 	lea    -0xa7e(%rip),%rax        # 2a10 <_ZN3CPU4adc8Ehh>
    348e:	8a 0c 0a             	mov    (%rdx,%rcx,1),%cl
    3491:	80 7c 24 30 00       	cmpb   $0x0,0x30(%rsp)
    3496:	75 3c                	jne    34d4 <_ZN8Executor50execute_binary_immediate_regencoded_operation_8bitERm+0xf4>
    3498:	e9 92 00 00 00       	jmp    352f <_ZN8Executor50execute_binary_immediate_regencoded_operation_8bitERm+0x14f>
    349d:	48 8d 05 1c fd ff ff 	lea    -0x2e4(%rip),%rax        # 31c0 <_ZN3CPU4sbb8Ehh>
    34a4:	8a 0c 0a             	mov    (%rdx,%rcx,1),%cl
    34a7:	80 7c 24 30 00       	cmpb   $0x0,0x30(%rsp)
    34ac:	75 26                	jne    34d4 <_ZN8Executor50execute_binary_immediate_regencoded_operation_8bitERm+0xf4>
    34ae:	eb 7f                	jmp    352f <_ZN8Executor50execute_binary_immediate_regencoded_operation_8bitERm+0x14f>
    34b0:	48 8d 05 99 f6 ff ff 	lea    -0x967(%rip),%rax        # 2b50 <_ZN3CPU4cmp8Ehh>
    34b7:	8a 0c 0a             	mov    (%rdx,%rcx,1),%cl
    34ba:	80 7c 24 30 00       	cmpb   $0x0,0x30(%rsp)
    34bf:	75 13                	jne    34d4 <_ZN8Executor50execute_binary_immediate_regencoded_operation_8bitERm+0xf4>
    34c1:	eb 6c                	jmp    352f <_ZN8Executor50execute_binary_immediate_regencoded_operation_8bitERm+0x14f>
    34c3:	48 8d 05 26 fd ff ff 	lea    -0x2da(%rip),%rax        # 31f0 <_ZN3CPU4sub8Ehh>
    34ca:	8a 0c 0a             	mov    (%rdx,%rcx,1),%cl
    34cd:	80 7c 24 30 00       	cmpb   $0x0,0x30(%rsp)
    34d2:	74 5b                	je     352f <_ZN8Executor50execute_binary_immediate_regencoded_operation_8bitERm+0x14f>
    34d4:	0f b6 74 24 28       	movzbl 0x28(%rsp),%esi
    34d9:	0f b6 d1             	movzbl %cl,%edx
    34dc:	4c 89 ff             	mov    %r15,%rdi
    34df:	ff d0                	call   *%rax
    34e1:	88 44 24 28          	mov    %al,0x28(%rsp)
    34e5:	49 83 06 01          	addq   $0x1,(%r14)
    34e9:	48 8b 44 24 20       	mov    0x20(%rsp),%rax
    34ee:	48 85 c0             	test   %rax,%rax
    34f1:	74 06                	je     34f9 <_ZN8Executor50execute_binary_immediate_regencoded_operation_8bitERm+0x119>
    34f3:	8a 4c 24 28          	mov    0x28(%rsp),%cl
    34f7:	88 08                	mov    %cl,(%rax)
    34f9:	48 8b 7c 24 08       	mov    0x8(%rsp),%rdi
    34fe:	48 85 ff             	test   %rdi,%rdi
    3501:	74 11                	je     3514 <_ZN8Executor50execute_binary_immediate_regencoded_operation_8bitERm+0x134>
    3503:	48 8b 44 24 18       	mov    0x18(%rsp),%rax
    3508:	48 85 c0             	test   %rax,%rax
    350b:	74 07                	je     3514 <_ZN8Executor50execute_binary_immediate_regencoded_operation_8bitERm+0x134>
    350d:	0f b6 74 24 10       	movzbl 0x10(%rsp),%esi
    3512:	ff d0                	call   *%rax
    3514:	48 83 c4 60          	add    $0x60,%rsp
    3518:	5b                   	pop    %rbx
    3519:	41 5e                	pop    %r14
    351b:	41 5f                	pop    %r15
    351d:	c3                   	ret    
    351e:	48 8d 05 fb fc ff ff 	lea    -0x305(%rip),%rax        # 3220 <_ZN3CPU4xor8Ehh>
    3525:	8a 0c 0a             	mov    (%rdx,%rcx,1),%cl
    3528:	80 7c 24 30 00       	cmpb   $0x0,0x30(%rsp)
    352d:	75 a5                	jne    34d4 <_ZN8Executor50execute_binary_immediate_regencoded_operation_8bitERm+0xf4>
    352f:	0f b6 74 24 10       	movzbl 0x10(%rsp),%esi
    3534:	0f b6 d1             	movzbl %cl,%edx
    3537:	4c 89 ff             	mov    %r15,%rdi
    353a:	ff d0                	call   *%rax
    353c:	88 44 24 10          	mov    %al,0x10(%rsp)
    3540:	49 83 06 01          	addq   $0x1,(%r14)
    3544:	48 8b 44 24 20       	mov    0x20(%rsp),%rax
    3549:	48 85 c0             	test   %rax,%rax
    354c:	75 a5                	jne    34f3 <_ZN8Executor50execute_binary_immediate_regencoded_operation_8bitERm+0x113>
    354e:	eb a9                	jmp    34f9 <_ZN8Executor50execute_binary_immediate_regencoded_operation_8bitERm+0x119>
    3550:	bf 04 00 00 00       	mov    $0x4,%edi
    3555:	e8 56 eb ff ff       	call   20b0 <__cxa_allocate_exception@plt>
    355a:	c7 00 ff ff ff ff    	movl   $0xffffffff,(%rax)
    3560:	48 8b 35 29 5a 01 00 	mov    0x15a29(%rip),%rsi        # 18f90 <_ZTIi@CXXABI_1.3>
    3567:	48 89 c7             	mov    %rax,%rdi
    356a:	31 d2                	xor    %edx,%edx
    356c:	e8 4f ed ff ff       	call   22c0 <__cxa_throw@plt>
    3571:	eb 08                	jmp    357b <_ZN8Executor50execute_binary_immediate_regencoded_operation_8bitERm+0x19b>
    3573:	48 89 c7             	mov    %rax,%rdi
    3576:	e8 45 bc 00 00       	call   f1c0 <__clang_call_terminate>
    357b:	48 89 c3             	mov    %rax,%rbx
    357e:	48 8d 7c 24 08       	lea    0x8(%rsp),%rdi
    3583:	e8 78 bb 00 00       	call   f100 <_ZN23StructuredUnaryOperandsIhED2Ev>
    3588:	48 89 df             	mov    %rbx,%rdi
    358b:	e8 40 ed ff ff       	call   22d0 <_Unwind_Resume@plt>

0000000000003590 <_ZN8Executor54execute_binary_immediate_regencoded_operation_16_32bitERm>:
    3590:	55                   	push   %rbp
    3591:	41 57                	push   %r15
    3593:	41 56                	push   %r14
    3595:	41 55                	push   %r13
    3597:	41 54                	push   %r12
    3599:	53                   	push   %rbx
    359a:	48 83 ec 68          	sub    $0x68,%rsp
    359e:	48 89 f3             	mov    %rsi,%rbx
    35a1:	49 89 fd             	mov    %rdi,%r13
    35a4:	4c 8d 7f 40          	lea    0x40(%rdi),%r15
    35a8:	48 8b 0e             	mov    (%rsi),%rcx
    35ab:	48 8b 47 40          	mov    0x40(%rdi),%rax
    35af:	0f b6 74 01 01       	movzbl 0x1(%rcx,%rax,1),%esi
    35b4:	48 8d 7c 24 38       	lea    0x38(%rsp),%rdi
    35b9:	4c 89 fa             	mov    %r15,%rdx
    35bc:	45 31 c0             	xor    %r8d,%r8d
    35bf:	e8 4c c9 00 00       	call   ff10 <_Z15decode_modregrmhR6Memorymb>
    35c4:	8b 44 24 38          	mov    0x38(%rsp),%eax
    35c8:	48 03 03             	add    (%rbx),%rax
    35cb:	48 89 5c 24 60       	mov    %rbx,0x60(%rsp)
    35d0:	48 89 03             	mov    %rax,(%rbx)
    35d3:	41 80 bd 10 01 00 00 	cmpb   $0x0,0x110(%r13)
    35da:	00 
    35db:	74 4d                	je     362a <_ZN8Executor54execute_binary_immediate_regencoded_operation_16_32bitERm+0x9a>
    35dd:	48 c7 44 24 08 00 00 	movq   $0x0,0x8(%rsp)
    35e4:	00 00 
    35e6:	66 c7 44 24 10 00 00 	movw   $0x0,0x10(%rsp)
    35ed:	0f 57 c0             	xorps  %xmm0,%xmm0
    35f0:	0f 11 44 24 18       	movups %xmm0,0x18(%rsp)
    35f5:	66 c7 44 24 28 00 00 	movw   $0x0,0x28(%rsp)
    35fc:	40 8a 7c 24 50       	mov    0x50(%rsp),%dil
    3601:	40 84 ff             	test   %dil,%dil
    3604:	74 77                	je     367d <_ZN8Executor54execute_binary_immediate_regencoded_operation_16_32bitERm+0xed>
    3606:	c6 44 24 30 01       	movb   $0x1,0x30(%rsp)
    360b:	8b 4c 24 3c          	mov    0x3c(%rsp),%ecx
    360f:	80 7c 24 51 00       	cmpb   $0x0,0x51(%rsp)
    3614:	0f 84 bc 00 00 00    	je     36d6 <_ZN8Executor54execute_binary_immediate_regencoded_operation_16_32bitERm+0x146>
    361a:	8b 54 24 40          	mov    0x40(%rsp),%edx
    361e:	41 03 4c 95 20       	add    0x20(%r13,%rdx,4),%ecx
    3623:	89 ca                	mov    %ecx,%edx
    3625:	e9 cc 00 00 00       	jmp    36f6 <_ZN8Executor54execute_binary_immediate_regencoded_operation_16_32bitERm+0x166>
    362a:	48 c7 44 24 08 00 00 	movq   $0x0,0x8(%rsp)
    3631:	00 00 
    3633:	c7 44 24 10 00 00 00 	movl   $0x0,0x10(%rsp)
    363a:	00 
    363b:	0f 57 c0             	xorps  %xmm0,%xmm0
    363e:	0f 11 44 24 18       	movups %xmm0,0x18(%rsp)
    3643:	c7 44 24 28 00 00 00 	movl   $0x0,0x28(%rsp)
    364a:	00 
    364b:	40 8a 7c 24 50       	mov    0x50(%rsp),%dil
    3650:	40 84 ff             	test   %dil,%dil
    3653:	0f 84 f8 00 00 00    	je     3751 <_ZN8Executor54execute_binary_immediate_regencoded_operation_16_32bitERm+0x1c1>
    3659:	c6 44 24 30 01       	movb   $0x1,0x30(%rsp)
    365e:	8b 4c 24 3c          	mov    0x3c(%rsp),%ecx
    3662:	80 7c 24 51 00       	cmpb   $0x0,0x51(%rsp)
    3667:	0f 84 3b 01 00 00    	je     37a8 <_ZN8Executor54execute_binary_immediate_regencoded_operation_16_32bitERm+0x218>
    366d:	8b 54 24 40          	mov    0x40(%rsp),%edx
    3671:	41 03 4c 95 20       	add    0x20(%r13,%rdx,4),%ecx
    3676:	89 ca                	mov    %ecx,%edx
    3678:	e9 4b 01 00 00       	jmp    37c8 <_ZN8Executor54execute_binary_immediate_regencoded_operation_16_32bitERm+0x238>
    367d:	89 fd                	mov    %edi,%ebp
    367f:	c6 44 24 30 00       	movb   $0x0,0x30(%rsp)
    3684:	8b 5c 24 58          	mov    0x58(%rsp),%ebx
    3688:	41 8b 7c 9d 20       	mov    0x20(%r13,%rbx,4),%edi
    368d:	e8 de ef 00 00       	call   12670 <_Z12get_low_wordj>
    3692:	41 89 c6             	mov    %eax,%r14d
    3695:	4c 8d 24 9d 20 00 00 	lea    0x20(,%rbx,4),%r12
    369c:	00 
    369d:	4d 01 ec             	add    %r13,%r12
    36a0:	4c 89 64 24 08       	mov    %r12,0x8(%rsp)
    36a5:	66 89 44 24 10       	mov    %ax,0x10(%rsp)
    36aa:	48 8d 05 4f f0 00 00 	lea    0xf04f(%rip),%rax        # 12700 <_Z16grh_set_low_wordPjt>
    36b1:	48 89 44 24 18       	mov    %rax,0x18(%rsp)
    36b6:	41 0f b7 f6          	movzwl %r14w,%esi
    36ba:	4c 89 e7             	mov    %r12,%rdi
    36bd:	e8 3e f0 00 00       	call   12700 <_Z16grh_set_low_wordPjt>
    36c2:	48 8b 44 24 60       	mov    0x60(%rsp),%rax
    36c7:	48 8b 00             	mov    (%rax),%rax
    36ca:	49 8b 0f             	mov    (%r15),%rcx
    36cd:	45 31 ff             	xor    %r15d,%r15d
    36d0:	31 db                	xor    %ebx,%ebx
    36d2:	89 ef                	mov    %ebp,%edi
    36d4:	eb 3d                	jmp    3713 <_ZN8Executor54execute_binary_immediate_regencoded_operation_16_32bitERm+0x183>
    36d6:	80 7c 24 52 00       	cmpb   $0x0,0x52(%rsp)
    36db:	74 09                	je     36e6 <_ZN8Executor54execute_binary_immediate_regencoded_operation_16_32bitERm+0x156>
    36dd:	8b 54 24 48          	mov    0x48(%rsp),%edx
    36e1:	41 03 4c 95 20       	add    0x20(%r13,%rdx,4),%ecx
    36e6:	8b 54 24 4c          	mov    0x4c(%rsp),%edx
    36ea:	41 8b 54 95 20       	mov    0x20(%r13,%rdx,4),%edx
    36ef:	0f af 54 24 44       	imul   0x44(%rsp),%edx
    36f4:	01 ca                	add    %ecx,%edx
    36f6:	89 d2                	mov    %edx,%edx
    36f8:	49 8b 0f             	mov    (%r15),%rcx
    36fb:	4c 8d 3c 11          	lea    (%rcx,%rdx,1),%r15
    36ff:	0f b7 1c 11          	movzwl (%rcx,%rdx,1),%ebx
    3703:	4c 89 7c 24 20       	mov    %r15,0x20(%rsp)
    3708:	66 89 5c 24 28       	mov    %bx,0x28(%rsp)
    370d:	45 31 e4             	xor    %r12d,%r12d
    3710:	45 31 f6             	xor    %r14d,%r14d
    3713:	8b 54 24 58          	mov    0x58(%rsp),%edx
    3717:	48 83 fa 07          	cmp    $0x7,%rdx
    371b:	0f 87 90 02 00 00    	ja     39b1 <_ZN8Executor54execute_binary_immediate_regencoded_operation_16_32bitERm+0x421>
    3721:	48 8d 2d 28 f3 ff ff 	lea    -0xcd8(%rip),%rbp        # 2a50 <_ZN3CPU5add16Ett>
    3728:	48 8d 35 3d f9 00 00 	lea    0xf93d(%rip),%rsi        # 1306c <_ZTS8CPU_HALT+0x2c>
    372f:	48 63 14 96          	movslq (%rsi,%rdx,4),%rdx
    3733:	48 01 f2             	add    %rsi,%rdx
    3736:	ff e2                	jmp    *%rdx
    3738:	48 8d 2d d1 f6 ff ff 	lea    -0x92f(%rip),%rbp        # 2e10 <_ZN3CPU4or16Ett>
    373f:	0f b7 04 01          	movzwl (%rcx,%rax,1),%eax
    3743:	40 84 ff             	test   %dil,%dil
    3746:	0f 85 32 01 00 00    	jne    387e <_ZN8Executor54execute_binary_immediate_regencoded_operation_16_32bitERm+0x2ee>
    374c:	e9 83 01 00 00       	jmp    38d4 <_ZN8Executor54execute_binary_immediate_regencoded_operation_16_32bitERm+0x344>
    3751:	89 fd                	mov    %edi,%ebp
    3753:	c6 44 24 30 00       	movb   $0x0,0x30(%rsp)
    3758:	8b 5c 24 58          	mov    0x58(%rsp),%ebx
    375c:	41 8b 7c 9d 20       	mov    0x20(%r13,%rbx,4),%edi
    3761:	e8 ca ef 00 00       	call   12730 <_Z11null_getterj>
    3766:	41 89 c6             	mov    %eax,%r14d
    3769:	4c 8d 24 9d 20 00 00 	lea    0x20(,%rbx,4),%r12
    3770:	00 
    3771:	4d 01 ec             	add    %r13,%r12
    3774:	4c 89 64 24 08       	mov    %r12,0x8(%rsp)
    3779:	89 44 24 10          	mov    %eax,0x10(%rsp)
    377d:	48 8d 05 9c ef 00 00 	lea    0xef9c(%rip),%rax        # 12720 <_Z15grh_null_setterPjj>
    3784:	48 89 44 24 18       	mov    %rax,0x18(%rsp)
    3789:	4c 89 e7             	mov    %r12,%rdi
    378c:	44 89 f6             	mov    %r14d,%esi
    378f:	e8 8c ef 00 00       	call   12720 <_Z15grh_null_setterPjj>
    3794:	48 8b 44 24 60       	mov    0x60(%rsp),%rax
    3799:	48 8b 00             	mov    (%rax),%rax
    379c:	49 8b 0f             	mov    (%r15),%rcx
    379f:	45 31 ff             	xor    %r15d,%r15d
    37a2:	31 db                	xor    %ebx,%ebx
    37a4:	89 ef                	mov    %ebp,%edi
    37a6:	eb 3b                	jmp    37e3 <_ZN8Executor54execute_binary_immediate_regencoded_operation_16_32bitERm+0x253>
    37a8:	80 7c 24 52 00       	cmpb   $0x0,0x52(%rsp)
    37ad:	74 09                	je     37b8 <_ZN8Executor54execute_binary_immediate_regencoded_operation_16_32bitERm+0x228>
    37af:	8b 54 24 48          	mov    0x48(%rsp),%edx
    37b3:	41 03 4c 95 20       	add    0x20(%r13,%rdx,4),%ecx
    37b8:	8b 54 24 4c          	mov    0x4c(%rsp),%edx
    37bc:	41 8b 54 95 20       	mov    0x20(%r13,%rdx,4),%edx
    37c1:	0f af 54 24 44       	imul   0x44(%rsp),%edx
    37c6:	01 ca                	add    %ecx,%edx
    37c8:	89 d2                	mov    %edx,%edx
    37ca:	49 8b 0f             	mov    (%r15),%rcx
    37cd:	4c 8d 3c 11          	lea    (%rcx,%rdx,1),%r15
    37d1:	8b 1c 11             	mov    (%rcx,%rdx,1),%ebx
    37d4:	4c 89 7c 24 20       	mov    %r15,0x20(%rsp)
    37d9:	89 5c 24 28          	mov    %ebx,0x28(%rsp)
    37dd:	45 31 e4             	xor    %r12d,%r12d
    37e0:	45 31 f6             	xor    %r14d,%r14d
    37e3:	8b 54 24 58          	mov    0x58(%rsp),%edx
    37e7:	48 83 fa 07          	cmp    $0x7,%rdx
    37eb:	0f 87 e1 01 00 00    	ja     39d2 <_ZN8Executor54execute_binary_immediate_regencoded_operation_16_32bitERm+0x442>
    37f1:	48 8d 2d 68 f2 ff ff 	lea    -0xd98(%rip),%rbp        # 2a60 <_ZN3CPU5add32Ejj>
    37f8:	48 8d 35 8d f8 00 00 	lea    0xf88d(%rip),%rsi        # 1308c <_ZTS8CPU_HALT+0x4c>
    37ff:	48 63 14 96          	movslq (%rsi,%rdx,4),%rdx
    3803:	48 01 f2             	add    %rsi,%rdx
    3806:	ff e2                	jmp    *%rdx
    3808:	48 8d 2d 11 f6 ff ff 	lea    -0x9ef(%rip),%rbp        # 2e20 <_ZN3CPU4or32Ejj>
    380f:	8b 14 01             	mov    (%rcx,%rax,1),%edx
    3812:	40 84 ff             	test   %dil,%dil
    3815:	0f 85 2a 01 00 00    	jne    3945 <_ZN8Executor54execute_binary_immediate_regencoded_operation_16_32bitERm+0x3b5>
    381b:	e9 7e 01 00 00       	jmp    399e <_ZN8Executor54execute_binary_immediate_regencoded_operation_16_32bitERm+0x40e>
    3820:	48 8d 2d 59 f2 ff ff 	lea    -0xda7(%rip),%rbp        # 2a80 <_ZN3CPU5and16Ett>
    3827:	0f b7 04 01          	movzwl (%rcx,%rax,1),%eax
    382b:	40 84 ff             	test   %dil,%dil
    382e:	75 4e                	jne    387e <_ZN8Executor54execute_binary_immediate_regencoded_operation_16_32bitERm+0x2ee>
    3830:	e9 9f 00 00 00       	jmp    38d4 <_ZN8Executor54execute_binary_immediate_regencoded_operation_16_32bitERm+0x344>
    3835:	48 8d 2d e4 f1 ff ff 	lea    -0xe1c(%rip),%rbp        # 2a20 <_ZN3CPU5adc16Ett>
    383c:	0f b7 04 01          	movzwl (%rcx,%rax,1),%eax
    3840:	40 84 ff             	test   %dil,%dil
    3843:	75 39                	jne    387e <_ZN8Executor54execute_binary_immediate_regencoded_operation_16_32bitERm+0x2ee>
    3845:	e9 8a 00 00 00       	jmp    38d4 <_ZN8Executor54execute_binary_immediate_regencoded_operation_16_32bitERm+0x344>
    384a:	48 8d 2d 7f f9 ff ff 	lea    -0x681(%rip),%rbp        # 31d0 <_ZN3CPU5sbb16Ett>
    3851:	0f b7 04 01          	movzwl (%rcx,%rax,1),%eax
    3855:	40 84 ff             	test   %dil,%dil
    3858:	75 24                	jne    387e <_ZN8Executor54execute_binary_immediate_regencoded_operation_16_32bitERm+0x2ee>
    385a:	eb 78                	jmp    38d4 <_ZN8Executor54execute_binary_immediate_regencoded_operation_16_32bitERm+0x344>
    385c:	48 8d 2d fd f2 ff ff 	lea    -0xd03(%rip),%rbp        # 2b60 <_ZN3CPU5cmp16Ett>
    3863:	0f b7 04 01          	movzwl (%rcx,%rax,1),%eax
    3867:	40 84 ff             	test   %dil,%dil
    386a:	75 12                	jne    387e <_ZN8Executor54execute_binary_immediate_regencoded_operation_16_32bitERm+0x2ee>
    386c:	eb 66                	jmp    38d4 <_ZN8Executor54execute_binary_immediate_regencoded_operation_16_32bitERm+0x344>
    386e:	48 8d 2d 8b f9 ff ff 	lea    -0x675(%rip),%rbp        # 3200 <_ZN3CPU5sub16Ett>
    3875:	0f b7 04 01          	movzwl (%rcx,%rax,1),%eax
    3879:	40 84 ff             	test   %dil,%dil
    387c:	74 56                	je     38d4 <_ZN8Executor54execute_binary_immediate_regencoded_operation_16_32bitERm+0x344>
    387e:	0f b7 f3             	movzwl %bx,%esi
    3881:	0f b7 d0             	movzwl %ax,%edx
    3884:	4c 89 ef             	mov    %r13,%rdi
    3887:	ff d5                	call   *%rbp
    3889:	89 c3                	mov    %eax,%ebx
    388b:	66 89 44 24 28       	mov    %ax,0x28(%rsp)
    3890:	4d 85 ff             	test   %r15,%r15
    3893:	74 09                	je     389e <_ZN8Executor54execute_binary_immediate_regencoded_operation_16_32bitERm+0x30e>
    3895:	66 41 89 1f          	mov    %bx,(%r15)
    3899:	4c 8b 64 24 08       	mov    0x8(%rsp),%r12
    389e:	4d 85 e4             	test   %r12,%r12
    38a1:	0f 84 d0 00 00 00    	je     3977 <_ZN8Executor54execute_binary_immediate_regencoded_operation_16_32bitERm+0x3e7>
    38a7:	48 8b 44 24 18       	mov    0x18(%rsp),%rax
    38ac:	48 85 c0             	test   %rax,%rax
    38af:	0f 84 c2 00 00 00    	je     3977 <_ZN8Executor54execute_binary_immediate_regencoded_operation_16_32bitERm+0x3e7>
    38b5:	0f b7 74 24 10       	movzwl 0x10(%rsp),%esi
    38ba:	4c 89 e7             	mov    %r12,%rdi
    38bd:	ff d0                	call   *%rax
    38bf:	e9 b3 00 00 00       	jmp    3977 <_ZN8Executor54execute_binary_immediate_regencoded_operation_16_32bitERm+0x3e7>
    38c4:	48 8d 2d 65 f9 ff ff 	lea    -0x69b(%rip),%rbp        # 3230 <_ZN3CPU5xor16Ett>
    38cb:	0f b7 04 01          	movzwl (%rcx,%rax,1),%eax
    38cf:	40 84 ff             	test   %dil,%dil
    38d2:	75 aa                	jne    387e <_ZN8Executor54execute_binary_immediate_regencoded_operation_16_32bitERm+0x2ee>
    38d4:	41 0f b7 f6          	movzwl %r14w,%esi
    38d8:	0f b7 d0             	movzwl %ax,%edx
    38db:	4c 89 ef             	mov    %r13,%rdi
    38de:	ff d5                	call   *%rbp
    38e0:	66 89 44 24 10       	mov    %ax,0x10(%rsp)
    38e5:	4d 85 ff             	test   %r15,%r15
    38e8:	75 ab                	jne    3895 <_ZN8Executor54execute_binary_immediate_regencoded_operation_16_32bitERm+0x305>
    38ea:	eb b2                	jmp    389e <_ZN8Executor54execute_binary_immediate_regencoded_operation_16_32bitERm+0x30e>
    38ec:	48 8d 2d 9d f1 ff ff 	lea    -0xe63(%rip),%rbp        # 2a90 <_ZN3CPU5and32Ejj>
    38f3:	8b 14 01             	mov    (%rcx,%rax,1),%edx
    38f6:	40 84 ff             	test   %dil,%dil
    38f9:	75 4a                	jne    3945 <_ZN8Executor54execute_binary_immediate_regencoded_operation_16_32bitERm+0x3b5>
    38fb:	e9 9e 00 00 00       	jmp    399e <_ZN8Executor54execute_binary_immediate_regencoded_operation_16_32bitERm+0x40e>
    3900:	48 8d 2d 29 f1 ff ff 	lea    -0xed7(%rip),%rbp        # 2a30 <_ZN3CPU5adc32Ejj>
    3907:	8b 14 01             	mov    (%rcx,%rax,1),%edx
    390a:	40 84 ff             	test   %dil,%dil
    390d:	75 36                	jne    3945 <_ZN8Executor54execute_binary_immediate_regencoded_operation_16_32bitERm+0x3b5>
    390f:	e9 8a 00 00 00       	jmp    399e <_ZN8Executor54execute_binary_immediate_regencoded_operation_16_32bitERm+0x40e>
    3914:	48 8d 2d c5 f8 ff ff 	lea    -0x73b(%rip),%rbp        # 31e0 <_ZN3CPU5sbb32Ejj>
    391b:	8b 14 01             	mov    (%rcx,%rax,1),%edx
    391e:	40 84 ff             	test   %dil,%dil
    3921:	75 22                	jne    3945 <_ZN8Executor54execute_binary_immediate_regencoded_operation_16_32bitERm+0x3b5>
    3923:	eb 79                	jmp    399e <_ZN8Executor54execute_binary_immediate_regencoded_operation_16_32bitERm+0x40e>
    3925:	48 8d 2d 44 f2 ff ff 	lea    -0xdbc(%rip),%rbp        # 2b70 <_ZN3CPU5cmp32Ejj>
    392c:	8b 14 01             	mov    (%rcx,%rax,1),%edx
    392f:	40 84 ff             	test   %dil,%dil
    3932:	75 11                	jne    3945 <_ZN8Executor54execute_binary_immediate_regencoded_operation_16_32bitERm+0x3b5>
    3934:	eb 68                	jmp    399e <_ZN8Executor54execute_binary_immediate_regencoded_operation_16_32bitERm+0x40e>
    3936:	48 8d 2d d3 f8 ff ff 	lea    -0x72d(%rip),%rbp        # 3210 <_ZN3CPU5sub32Ejj>
    393d:	8b 14 01             	mov    (%rcx,%rax,1),%edx
    3940:	40 84 ff             	test   %dil,%dil
    3943:	74 59                	je     399e <_ZN8Executor54execute_binary_immediate_regencoded_operation_16_32bitERm+0x40e>
    3945:	4c 89 ef             	mov    %r13,%rdi
    3948:	89 de                	mov    %ebx,%esi
    394a:	ff d5                	call   *%rbp
    394c:	89 c3                	mov    %eax,%ebx
    394e:	89 44 24 28          	mov    %eax,0x28(%rsp)
    3952:	4d 85 ff             	test   %r15,%r15
    3955:	74 08                	je     395f <_ZN8Executor54execute_binary_immediate_regencoded_operation_16_32bitERm+0x3cf>
    3957:	41 89 1f             	mov    %ebx,(%r15)
    395a:	4c 8b 64 24 08       	mov    0x8(%rsp),%r12
    395f:	4d 85 e4             	test   %r12,%r12
    3962:	74 13                	je     3977 <_ZN8Executor54execute_binary_immediate_regencoded_operation_16_32bitERm+0x3e7>
    3964:	48 8b 44 24 18       	mov    0x18(%rsp),%rax
    3969:	48 85 c0             	test   %rax,%rax
    396c:	74 09                	je     3977 <_ZN8Executor54execute_binary_immediate_regencoded_operation_16_32bitERm+0x3e7>
    396e:	8b 74 24 10          	mov    0x10(%rsp),%esi
    3972:	4c 89 e7             	mov    %r12,%rdi
    3975:	ff d0                	call   *%rax
    3977:	48 8b 44 24 60       	mov    0x60(%rsp),%rax
    397c:	48 83 00 01          	addq   $0x1,(%rax)
    3980:	48 83 c4 68          	add    $0x68,%rsp
    3984:	5b                   	pop    %rbx
    3985:	41 5c                	pop    %r12
    3987:	41 5d                	pop    %r13
    3989:	41 5e                	pop    %r14
    398b:	41 5f                	pop    %r15
    398d:	5d                   	pop    %rbp
    398e:	c3                   	ret    
    398f:	48 8d 2d aa f8 ff ff 	lea    -0x756(%rip),%rbp        # 3240 <_ZN3CPU5xor32Ejj>
    3996:	8b 14 01             	mov    (%rcx,%rax,1),%edx
    3999:	40 84 ff             	test   %dil,%dil
    399c:	75 a7                	jne    3945 <_ZN8Executor54execute_binary_immediate_regencoded_operation_16_32bitERm+0x3b5>
    399e:	4c 89 ef             	mov    %r13,%rdi
    39a1:	44 89 f6             	mov    %r14d,%esi
    39a4:	ff d5                	call   *%rbp
    39a6:	89 44 24 10          	mov    %eax,0x10(%rsp)
    39aa:	4d 85 ff             	test   %r15,%r15
    39ad:	75 a8                	jne    3957 <_ZN8Executor54execute_binary_immediate_regencoded_operation_16_32bitERm+0x3c7>
    39af:	eb ae                	jmp    395f <_ZN8Executor54execute_binary_immediate_regencoded_operation_16_32bitERm+0x3cf>
    39b1:	bf 04 00 00 00       	mov    $0x4,%edi
    39b6:	e8 f5 e6 ff ff       	call   20b0 <__cxa_allocate_exception@plt>
    39bb:	c7 00 ff ff ff ff    	movl   $0xffffffff,(%rax)
    39c1:	48 8b 35 c8 55 01 00 	mov    0x155c8(%rip),%rsi        # 18f90 <_ZTIi@CXXABI_1.3>
    39c8:	48 89 c7             	mov    %rax,%rdi
    39cb:	31 d2                	xor    %edx,%edx
    39cd:	e8 ee e8 ff ff       	call   22c0 <__cxa_throw@plt>
    39d2:	bf 04 00 00 00       	mov    $0x4,%edi
    39d7:	e8 d4 e6 ff ff       	call   20b0 <__cxa_allocate_exception@plt>
    39dc:	c7 00 ff ff ff ff    	movl   $0xffffffff,(%rax)
    39e2:	48 8b 35 a7 55 01 00 	mov    0x155a7(%rip),%rsi        # 18f90 <_ZTIi@CXXABI_1.3>
    39e9:	48 89 c7             	mov    %rax,%rdi
    39ec:	31 d2                	xor    %edx,%edx
    39ee:	e8 cd e8 ff ff       	call   22c0 <__cxa_throw@plt>
    39f3:	eb 26                	jmp    3a1b <_ZN8Executor54execute_binary_immediate_regencoded_operation_16_32bitERm+0x48b>
    39f5:	eb 39                	jmp    3a30 <_ZN8Executor54execute_binary_immediate_regencoded_operation_16_32bitERm+0x4a0>
    39f7:	48 89 c7             	mov    %rax,%rdi
    39fa:	e8 c1 b7 00 00       	call   f1c0 <__clang_call_terminate>
    39ff:	eb 1a                	jmp    3a1b <_ZN8Executor54execute_binary_immediate_regencoded_operation_16_32bitERm+0x48b>
    3a01:	48 89 c7             	mov    %rax,%rdi
    3a04:	e8 b7 b7 00 00       	call   f1c0 <__clang_call_terminate>
    3a09:	48 89 c7             	mov    %rax,%rdi
    3a0c:	e8 af b7 00 00       	call   f1c0 <__clang_call_terminate>
    3a11:	eb 1d                	jmp    3a30 <_ZN8Executor54execute_binary_immediate_regencoded_operation_16_32bitERm+0x4a0>
    3a13:	48 89 c7             	mov    %rax,%rdi
    3a16:	e8 a5 b7 00 00       	call   f1c0 <__clang_call_terminate>
    3a1b:	48 89 c3             	mov    %rax,%rbx
    3a1e:	48 8d 7c 24 08       	lea    0x8(%rsp),%rdi
    3a23:	e8 58 b7 00 00       	call   f180 <_ZN23StructuredUnaryOperandsIjED2Ev>
    3a28:	48 89 df             	mov    %rbx,%rdi
    3a2b:	e8 a0 e8 ff ff       	call   22d0 <_Unwind_Resume@plt>
    3a30:	48 89 c3             	mov    %rax,%rbx
    3a33:	48 8d 7c 24 08       	lea    0x8(%rsp),%rdi
    3a38:	e8 03 b7 00 00       	call   f140 <_ZN23StructuredUnaryOperandsItED2Ev>
    3a3d:	48 89 df             	mov    %rbx,%rdi
    3a40:	e8 8b e8 ff ff       	call   22d0 <_Unwind_Resume@plt>
    3a45:	66 2e 0f 1f 84 00 00 	cs nopw 0x0(%rax,%rax,1)
    3a4c:	00 00 00 
    3a4f:	90                   	nop

0000000000003a50 <_ZN8Executor7executeEv>:
    3a50:	55                   	push   %rbp
    3a51:	41 57                	push   %r15
    3a53:	41 56                	push   %r14
    3a55:	41 55                	push   %r13
    3a57:	41 54                	push   %r12
    3a59:	53                   	push   %rbx
    3a5a:	48 81 ec 08 02 00 00 	sub    $0x208,%rsp
    3a61:	49 89 fe             	mov    %rdi,%r14
    3a64:	48 c7 44 24 10 00 00 	movq   $0x0,0x10(%rsp)
    3a6b:	00 00 
    3a6d:	48 8d 47 40          	lea    0x40(%rdi),%rax
    3a71:	48 89 44 24 68       	mov    %rax,0x68(%rsp)
    3a76:	48 8d 47 50          	lea    0x50(%rdi),%rax
    3a7a:	48 89 44 24 60       	mov    %rax,0x60(%rsp)
    3a7f:	48 8d 87 10 01 00 00 	lea    0x110(%rdi),%rax
    3a86:	48 89 44 24 58       	mov    %rax,0x58(%rsp)
    3a8b:	48 8d 47 20          	lea    0x20(%rdi),%rax
    3a8f:	48 89 44 24 70       	mov    %rax,0x70(%rsp)
    3a94:	eb 1a                	jmp    3ab0 <_ZN8Executor7executeEv+0x60>
    3a96:	8b 44 24 78          	mov    0x78(%rsp),%eax
    3a9a:	48 01 44 24 10       	add    %rax,0x10(%rsp)
    3a9f:	48 8b 44 24 58       	mov    0x58(%rsp),%rax
    3aa4:	c6 00 00             	movb   $0x0,(%rax)
    3aa7:	66 0f 1f 84 00 00 00 	nopw   0x0(%rax,%rax,1)
    3aae:	00 00 
    3ab0:	48 8b 4c 24 10       	mov    0x10(%rsp),%rcx
    3ab5:	48 8b 44 24 68       	mov    0x68(%rsp),%rax
    3aba:	48 8b 10             	mov    (%rax),%rdx
    3abd:	0f b6 1c 0a          	movzbl (%rdx,%rcx,1),%ebx
    3ac1:	31 c0                	xor    %eax,%eax
    3ac3:	84 c0                	test   %al,%al
    3ac5:	0f 85 cd 89 00 00    	jne    c498 <_ZN8Executor7executeEv+0x8a48>
    3acb:	0f b6 f3             	movzbl %bl,%esi
    3ace:	8d 46 80             	lea    -0x80(%rsi),%eax
    3ad1:	0f b6 c0             	movzbl %al,%eax
    3ad4:	48 8d 3d d1 f5 00 00 	lea    0xf5d1(%rip),%rdi        # 130ac <_ZTS8CPU_HALT+0x6c>
    3adb:	48 63 04 87          	movslq (%rdi,%rax,4),%rax
    3adf:	48 01 f8             	add    %rdi,%rax
    3ae2:	ff e0                	jmp    *%rax
    3ae4:	48 83 c1 01          	add    $0x1,%rcx
    3ae8:	48 89 4c 24 10       	mov    %rcx,0x10(%rsp)
    3aed:	eb c1                	jmp    3ab0 <_ZN8Executor7executeEv+0x60>
    3aef:	83 c6 c0             	add    $0xffffffc0,%esi
    3af2:	4c 89 f7             	mov    %r14,%rdi
    3af5:	e8 b6 eb ff ff       	call   26b0 <_ZN3CPU5regatEi>
    3afa:	48 89 c3             	mov    %rax,%rbx
    3afd:	41 80 be 10 01 00 00 	cmpb   $0x0,0x110(%r14)
    3b04:	00 
    3b05:	8b 30                	mov    (%rax),%esi
    3b07:	0f 84 8a 01 00 00    	je     3c97 <_ZN8Executor7executeEv+0x247>
    3b0d:	0f b7 f6             	movzwl %si,%esi
    3b10:	4c 89 f7             	mov    %r14,%rdi
    3b13:	e8 58 f2 ff ff       	call   2d70 <_ZN3CPU5inc16Et>
    3b18:	eb 29                	jmp    3b43 <_ZN8Executor7executeEv+0xf3>
    3b1a:	83 c6 c0             	add    $0xffffffc0,%esi
    3b1d:	4c 89 f7             	mov    %r14,%rdi
    3b20:	e8 8b eb ff ff       	call   26b0 <_ZN3CPU5regatEi>
    3b25:	48 89 c3             	mov    %rax,%rbx
    3b28:	41 80 be 10 01 00 00 	cmpb   $0x0,0x110(%r14)
    3b2f:	00 
    3b30:	8b 30                	mov    (%rax),%esi
    3b32:	0f 84 69 01 00 00    	je     3ca1 <_ZN8Executor7executeEv+0x251>
    3b38:	0f b7 f6             	movzwl %si,%esi
    3b3b:	4c 89 f7             	mov    %r14,%rdi
    3b3e:	e8 dd f1 ff ff       	call   2d20 <_ZN3CPU5dec16Et>
    3b43:	0f b7 f0             	movzwl %ax,%esi
    3b46:	48 89 df             	mov    %rbx,%rdi
    3b49:	e8 12 eb 00 00       	call   12660 <_Z12set_low_wordRjt>
    3b4e:	48 83 44 24 10 01    	addq   $0x1,0x10(%rsp)
    3b54:	e9 57 ff ff ff       	jmp    3ab0 <_ZN8Executor7executeEv+0x60>
    3b59:	81 c6 48 ff ff ff    	add    $0xffffff48,%esi
    3b5f:	4c 89 f7             	mov    %r14,%rdi
    3b62:	e8 49 eb ff ff       	call   26b0 <_ZN3CPU5regatEi>
    3b67:	41 80 be 10 01 00 00 	cmpb   $0x0,0x110(%r14)
    3b6e:	00 
    3b6f:	48 8b 4c 24 10       	mov    0x10(%rsp),%rcx
    3b74:	49 8b 56 40          	mov    0x40(%r14),%rdx
    3b78:	0f 84 38 01 00 00    	je     3cb6 <_ZN8Executor7executeEv+0x266>
    3b7e:	0f b7 74 0a 01       	movzwl 0x1(%rdx,%rcx,1),%esi
    3b83:	48 89 c7             	mov    %rax,%rdi
    3b86:	e8 d5 ea 00 00       	call   12660 <_Z12set_low_wordRjt>
    3b8b:	48 8b 44 24 10       	mov    0x10(%rsp),%rax
    3b90:	48 83 c0 03          	add    $0x3,%rax
    3b94:	48 89 44 24 10       	mov    %rax,0x10(%rsp)
    3b99:	e9 12 ff ff ff       	jmp    3ab0 <_ZN8Executor7executeEv+0x60>
    3b9e:	83 c6 b0             	add    $0xffffffb0,%esi
    3ba1:	4c 89 f7             	mov    %r14,%rdi
    3ba4:	e8 07 eb ff ff       	call   26b0 <_ZN3CPU5regatEi>
    3ba9:	8b 30                	mov    (%rax),%esi
    3bab:	41 80 be 10 01 00 00 	cmpb   $0x0,0x110(%r14)
    3bb2:	00 
    3bb3:	0f 84 11 01 00 00    	je     3cca <_ZN8Executor7executeEv+0x27a>
    3bb9:	89 f7                	mov    %esi,%edi
    3bbb:	e8 b0 ea 00 00       	call   12670 <_Z12get_low_wordj>
    3bc0:	0f b7 f0             	movzwl %ax,%esi
    3bc3:	4c 89 f7             	mov    %r14,%rdi
    3bc6:	e8 15 f4 ff ff       	call   2fe0 <_ZN3CPU6push16Et>
    3bcb:	48 83 44 24 10 01    	addq   $0x1,0x10(%rsp)
    3bd1:	e9 da fe ff ff       	jmp    3ab0 <_ZN8Executor7executeEv+0x60>
    3bd6:	81 c6 70 ff ff ff    	add    $0xffffff70,%esi
    3bdc:	4c 89 f7             	mov    %r14,%rdi
    3bdf:	e8 cc ea ff ff       	call   26b0 <_ZN3CPU5regatEi>
    3be4:	4c 89 f7             	mov    %r14,%rdi
    3be7:	48 89 c6             	mov    %rax,%rsi
    3bea:	e8 a1 f6 ff ff       	call   3290 <_ZN3CPU4xchgERj>
    3bef:	48 83 44 24 10 01    	addq   $0x1,0x10(%rsp)
    3bf5:	e9 b6 fe ff ff       	jmp    3ab0 <_ZN8Executor7executeEv+0x60>
    3bfa:	83 c6 a8             	add    $0xffffffa8,%esi
    3bfd:	4c 89 f7             	mov    %r14,%rdi
    3c00:	e8 ab ea ff ff       	call   26b0 <_ZN3CPU5regatEi>
    3c05:	48 89 c3             	mov    %rax,%rbx
    3c08:	4c 89 f7             	mov    %r14,%rdi
    3c0b:	e8 20 f2 ff ff       	call   2e30 <_ZN3CPU4pop8Ev>
    3c10:	0f b6 f0             	movzbl %al,%esi
    3c13:	48 89 df             	mov    %rbx,%rdi
    3c16:	e8 25 ea 00 00       	call   12640 <_Z12set_low_byteRjh>
    3c1b:	48 83 44 24 10 01    	addq   $0x1,0x10(%rsp)
    3c21:	e9 8a fe ff ff       	jmp    3ab0 <_ZN8Executor7executeEv+0x60>
    3c26:	83 c6 a4             	add    $0xffffffa4,%esi
    3c29:	4c 89 f7             	mov    %r14,%rdi
    3c2c:	e8 7f ea ff ff       	call   26b0 <_ZN3CPU5regatEi>
    3c31:	48 89 c3             	mov    %rax,%rbx
    3c34:	4c 89 f7             	mov    %r14,%rdi
    3c37:	e8 f4 f1 ff ff       	call   2e30 <_ZN3CPU4pop8Ev>
    3c3c:	0f b6 f0             	movzbl %al,%esi
    3c3f:	48 89 df             	mov    %rbx,%rdi
    3c42:	e8 39 ea 00 00       	call   12680 <_Z22set_low_word_high_byteRjh>
    3c47:	48 83 44 24 10 01    	addq   $0x1,0x10(%rsp)
    3c4d:	e9 5e fe ff ff       	jmp    3ab0 <_ZN8Executor7executeEv+0x60>
    3c52:	0f b6 5c 11 01       	movzbl 0x1(%rcx,%rdx,1),%ebx
    3c57:	81 c6 50 ff ff ff    	add    $0xffffff50,%esi
    3c5d:	4c 89 f7             	mov    %r14,%rdi
    3c60:	e8 4b ea ff ff       	call   26b0 <_ZN3CPU5regatEi>
    3c65:	48 89 c7             	mov    %rax,%rdi
    3c68:	89 de                	mov    %ebx,%esi
    3c6a:	e9 6c 18 00 00       	jmp    54db <_ZN8Executor7executeEv+0x1a8b>
    3c6f:	0f b6 5c 11 01       	movzbl 0x1(%rcx,%rdx,1),%ebx
    3c74:	81 c6 4c ff ff ff    	add    $0xffffff4c,%esi
    3c7a:	4c 89 f7             	mov    %r14,%rdi
    3c7d:	e8 2e ea ff ff       	call   26b0 <_ZN3CPU5regatEi>
    3c82:	48 89 c7             	mov    %rax,%rdi
    3c85:	89 de                	mov    %ebx,%esi
    3c87:	e8 f4 e9 00 00       	call   12680 <_Z22set_low_word_high_byteRjh>
    3c8c:	48 83 44 24 10 02    	addq   $0x2,0x10(%rsp)
    3c92:	e9 19 fe ff ff       	jmp    3ab0 <_ZN8Executor7executeEv+0x60>
    3c97:	4c 89 f7             	mov    %r14,%rdi
    3c9a:	e8 e1 f0 ff ff       	call   2d80 <_ZN3CPU5inc32Ej>
    3c9f:	eb 08                	jmp    3ca9 <_ZN8Executor7executeEv+0x259>
    3ca1:	4c 89 f7             	mov    %r14,%rdi
    3ca4:	e8 87 f0 ff ff       	call   2d30 <_ZN3CPU5dec32Ej>
    3ca9:	89 03                	mov    %eax,(%rbx)
    3cab:	48 83 44 24 10 01    	addq   $0x1,0x10(%rsp)
    3cb1:	e9 fa fd ff ff       	jmp    3ab0 <_ZN8Executor7executeEv+0x60>
    3cb6:	8b 54 0a 01          	mov    0x1(%rdx,%rcx,1),%edx
    3cba:	89 10                	mov    %edx,(%rax)
    3cbc:	48 83 c1 05          	add    $0x5,%rcx
    3cc0:	48 89 4c 24 10       	mov    %rcx,0x10(%rsp)
    3cc5:	e9 e6 fd ff ff       	jmp    3ab0 <_ZN8Executor7executeEv+0x60>
    3cca:	4c 89 f7             	mov    %r14,%rdi
    3ccd:	e8 1e f3 ff ff       	call   2ff0 <_ZN3CPU6push32Ej>
    3cd2:	48 83 44 24 10 01    	addq   $0x1,0x10(%rsp)
    3cd8:	e9 d3 fd ff ff       	jmp    3ab0 <_ZN8Executor7executeEv+0x60>
    3cdd:	0f b6 5c 11 01       	movzbl 0x1(%rcx,%rdx,1),%ebx
    3ce2:	41 8b 7e 20          	mov    0x20(%r14),%edi
    3ce6:	e8 65 e9 00 00       	call   12650 <_Z12get_low_bytej>
    3ceb:	0f b6 f0             	movzbl %al,%esi
    3cee:	4c 89 f7             	mov    %r14,%rdi
    3cf1:	89 da                	mov    %ebx,%edx
    3cf3:	e8 48 ed ff ff       	call   2a40 <_ZN3CPU4add8Ehh>
    3cf8:	e9 d6 17 00 00       	jmp    54d3 <_ZN8Executor7executeEv+0x1a83>
    3cfd:	41 80 7e 02 00       	cmpb   $0x0,0x2(%r14)
    3d02:	0f 85 98 04 00 00    	jne    41a0 <_ZN8Executor7executeEv+0x750>
    3d08:	e9 88 04 00 00       	jmp    4195 <_ZN8Executor7executeEv+0x745>
    3d0d:	41 80 7e 04 00       	cmpb   $0x0,0x4(%r14)
    3d12:	0f 85 7d 04 00 00    	jne    4195 <_ZN8Executor7executeEv+0x745>
    3d18:	e9 83 04 00 00       	jmp    41a0 <_ZN8Executor7executeEv+0x750>
    3d1d:	41 80 7e 05 00       	cmpb   $0x0,0x5(%r14)
    3d22:	0f 85 78 04 00 00    	jne    41a0 <_ZN8Executor7executeEv+0x750>
    3d28:	e9 68 04 00 00       	jmp    4195 <_ZN8Executor7executeEv+0x745>
    3d2d:	0f b6 74 11 01       	movzbl 0x1(%rcx,%rdx,1),%esi
    3d32:	48 8d 7c 24 78       	lea    0x78(%rsp),%rdi
    3d37:	48 8b 54 24 68       	mov    0x68(%rsp),%rdx
    3d3c:	45 31 c0             	xor    %r8d,%r8d
    3d3f:	e8 cc c1 00 00       	call   ff10 <_Z15decode_modregrmhR6Memorymb>
    3d44:	41 80 be 10 01 00 00 	cmpb   $0x0,0x110(%r14)
    3d4b:	00 
    3d4c:	8b 84 24 98 00 00 00 	mov    0x98(%rsp),%eax
    3d53:	4d 8d 6c 86 20       	lea    0x20(%r14,%rax,4),%r13
    3d58:	41 8b 7c 86 20       	mov    0x20(%r14,%rax,4),%edi
    3d5d:	4c 89 6c 24 28       	mov    %r13,0x28(%rsp)
    3d62:	0f 84 a3 17 00 00    	je     550b <_ZN8Executor7executeEv+0x1abb>
    3d68:	e8 03 e9 00 00       	call   12670 <_Z12get_low_wordj>
    3d6d:	0f b7 e8             	movzwl %ax,%ebp
    3d70:	4c 89 ef             	mov    %r13,%rdi
    3d73:	89 ee                	mov    %ebp,%esi
    3d75:	e8 86 e9 00 00       	call   12700 <_Z16grh_set_low_wordPjt>
    3d7a:	44 0f b6 a4 24 90 00 	movzbl 0x90(%rsp),%r12d
    3d81:	00 00 
    3d83:	45 84 e4             	test   %r12b,%r12b
    3d86:	44 88 64 24 18       	mov    %r12b,0x18(%rsp)
    3d8b:	0f 84 97 28 00 00    	je     6628 <_ZN8Executor7executeEv+0x2bd8>
    3d91:	8b 44 24 7c          	mov    0x7c(%rsp),%eax
    3d95:	80 bc 24 91 00 00 00 	cmpb   $0x0,0x91(%rsp)
    3d9c:	00 
    3d9d:	0f 84 0b 2f 00 00    	je     6cae <_ZN8Executor7executeEv+0x325e>
    3da3:	8b 8c 24 80 00 00 00 	mov    0x80(%rsp),%ecx
    3daa:	41 03 44 8e 20       	add    0x20(%r14,%rcx,4),%eax
    3daf:	89 c1                	mov    %eax,%ecx
    3db1:	e9 24 2f 00 00       	jmp    6cda <_ZN8Executor7executeEv+0x328a>
    3db6:	41 80 3e 00          	cmpb   $0x0,(%r14)
    3dba:	0f 85 e0 03 00 00    	jne    41a0 <_ZN8Executor7executeEv+0x750>
    3dc0:	e9 d0 03 00 00       	jmp    4195 <_ZN8Executor7executeEv+0x745>
    3dc5:	48 8b 44 24 58       	mov    0x58(%rsp),%rax
    3dca:	80 38 00             	cmpb   $0x0,(%rax)
    3dcd:	0f 84 86 17 00 00    	je     5559 <_ZN8Executor7executeEv+0x1b09>
    3dd3:	4c 89 f7             	mov    %r14,%rdi
    3dd6:	e8 b5 f0 ff ff       	call   2e90 <_ZN3CPU4popaEv>
    3ddb:	48 83 44 24 10 01    	addq   $0x1,0x10(%rsp)
    3de1:	e9 ca fc ff ff       	jmp    3ab0 <_ZN8Executor7executeEv+0x60>
    3de6:	0f b6 5c 11 01       	movzbl 0x1(%rcx,%rdx,1),%ebx
    3deb:	41 8b 7e 20          	mov    0x20(%r14),%edi
    3def:	e8 5c e8 00 00       	call   12650 <_Z12get_low_bytej>
    3df4:	0f b6 f0             	movzbl %al,%esi
    3df7:	4c 89 f7             	mov    %r14,%rdi
    3dfa:	89 da                	mov    %ebx,%edx
    3dfc:	e8 bf f3 ff ff       	call   31c0 <_ZN3CPU4sbb8Ehh>
    3e01:	e9 cd 16 00 00       	jmp    54d3 <_ZN8Executor7executeEv+0x1a83>
    3e06:	0f b6 74 11 01       	movzbl 0x1(%rcx,%rdx,1),%esi
    3e0b:	48 8d 7c 24 30       	lea    0x30(%rsp),%rdi
    3e10:	48 8b 5c 24 68       	mov    0x68(%rsp),%rbx
    3e15:	48 89 da             	mov    %rbx,%rdx
    3e18:	41 b8 01 00 00 00    	mov    $0x1,%r8d
    3e1e:	e8 ed c0 00 00       	call   ff10 <_Z15decode_modregrmhR6Memorymb>
    3e23:	48 8d 7c 24 78       	lea    0x78(%rsp),%rdi
    3e28:	48 8b 74 24 70       	mov    0x70(%rsp),%rsi
    3e2d:	48 89 da             	mov    %rbx,%rdx
    3e30:	48 8d 4c 24 34       	lea    0x34(%rsp),%rcx
    3e35:	e8 96 b3 00 00       	call   f1d0 <_Z18structure_operandsIhE18StructuredOperandsIT_ERA8_jR6MemoryRK8Operands>
    3e3a:	80 bc 24 a0 00 00 00 	cmpb   $0x0,0xa0(%rsp)
    3e41:	00 
    3e42:	0f 84 24 17 00 00    	je     556c <_ZN8Executor7executeEv+0x1b1c>
    3e48:	0f b6 b4 24 98 00 00 	movzbl 0x98(%rsp),%esi
    3e4f:	00 
    3e50:	0f b6 94 24 b0 00 00 	movzbl 0xb0(%rsp),%edx
    3e57:	00 
    3e58:	4c 89 f7             	mov    %r14,%rdi
    3e5b:	e8 f0 ec ff ff       	call   2b50 <_ZN3CPU4cmp8Ehh>
    3e60:	88 84 24 98 00 00 00 	mov    %al,0x98(%rsp)
    3e67:	e9 1f 17 00 00       	jmp    558b <_ZN8Executor7executeEv+0x1b3b>
    3e6c:	0f b6 74 11 01       	movzbl 0x1(%rcx,%rdx,1),%esi
    3e71:	48 8d 7c 24 78       	lea    0x78(%rsp),%rdi
    3e76:	48 8b 54 24 68       	mov    0x68(%rsp),%rdx
    3e7b:	45 31 c0             	xor    %r8d,%r8d
    3e7e:	e8 8d c0 00 00       	call   ff10 <_Z15decode_modregrmhR6Memorymb>
    3e83:	41 80 be 10 01 00 00 	cmpb   $0x0,0x110(%r14)
    3e8a:	00 
    3e8b:	8b 84 24 98 00 00 00 	mov    0x98(%rsp),%eax
    3e92:	4d 8d 6c 86 20       	lea    0x20(%r14,%rax,4),%r13
    3e97:	41 8b 7c 86 20       	mov    0x20(%r14,%rax,4),%edi
    3e9c:	4c 89 6c 24 28       	mov    %r13,0x28(%rsp)
    3ea1:	0f 84 5e 17 00 00    	je     5605 <_ZN8Executor7executeEv+0x1bb5>
    3ea7:	e8 c4 e7 00 00       	call   12670 <_Z12get_low_wordj>
    3eac:	0f b7 e8             	movzwl %ax,%ebp
    3eaf:	4c 89 ef             	mov    %r13,%rdi
    3eb2:	89 ee                	mov    %ebp,%esi
    3eb4:	e8 47 e8 00 00       	call   12700 <_Z16grh_set_low_wordPjt>
    3eb9:	44 0f b6 a4 24 90 00 	movzbl 0x90(%rsp),%r12d
    3ec0:	00 00 
    3ec2:	45 84 e4             	test   %r12b,%r12b
    3ec5:	44 88 64 24 18       	mov    %r12b,0x18(%rsp)
    3eca:	0f 84 a7 27 00 00    	je     6677 <_ZN8Executor7executeEv+0x2c27>
    3ed0:	8b 44 24 7c          	mov    0x7c(%rsp),%eax
    3ed4:	80 bc 24 91 00 00 00 	cmpb   $0x0,0x91(%rsp)
    3edb:	00 
    3edc:	0f 84 60 2e 00 00    	je     6d42 <_ZN8Executor7executeEv+0x32f2>
    3ee2:	8b 8c 24 80 00 00 00 	mov    0x80(%rsp),%ecx
    3ee9:	41 03 44 8e 20       	add    0x20(%r14,%rcx,4),%eax
    3eee:	89 c1                	mov    %eax,%ecx
    3ef0:	e9 79 2e 00 00       	jmp    6d6e <_ZN8Executor7executeEv+0x331e>
    3ef5:	0f b6 74 11 01       	movzbl 0x1(%rcx,%rdx,1),%esi
    3efa:	48 8d 7c 24 78       	lea    0x78(%rsp),%rdi
    3eff:	48 8b 54 24 68       	mov    0x68(%rsp),%rdx
    3f04:	45 31 c0             	xor    %r8d,%r8d
    3f07:	e8 04 c0 00 00       	call   ff10 <_Z15decode_modregrmhR6Memorymb>
    3f0c:	41 80 be 10 01 00 00 	cmpb   $0x0,0x110(%r14)
    3f13:	00 
    3f14:	8b 84 24 98 00 00 00 	mov    0x98(%rsp),%eax
    3f1b:	4d 8d 6c 86 20       	lea    0x20(%r14,%rax,4),%r13
    3f20:	41 8b 7c 86 20       	mov    0x20(%r14,%rax,4),%edi
    3f25:	4c 89 6c 24 28       	mov    %r13,0x28(%rsp)
    3f2a:	0f 84 22 17 00 00    	je     5652 <_ZN8Executor7executeEv+0x1c02>
    3f30:	e8 3b e7 00 00       	call   12670 <_Z12get_low_wordj>
    3f35:	0f b7 e8             	movzwl %ax,%ebp
    3f38:	4c 89 ef             	mov    %r13,%rdi
    3f3b:	89 ee                	mov    %ebp,%esi
    3f3d:	e8 be e7 00 00       	call   12700 <_Z16grh_set_low_wordPjt>
    3f42:	44 0f b6 a4 24 90 00 	movzbl 0x90(%rsp),%r12d
    3f49:	00 00 
    3f4b:	45 84 e4             	test   %r12b,%r12b
    3f4e:	44 88 64 24 18       	mov    %r12b,0x18(%rsp)
    3f53:	0f 84 67 27 00 00    	je     66c0 <_ZN8Executor7executeEv+0x2c70>
    3f59:	8b 44 24 7c          	mov    0x7c(%rsp),%eax
    3f5d:	80 bc 24 91 00 00 00 	cmpb   $0x0,0x91(%rsp)
    3f64:	00 
    3f65:	0f 84 6a 2e 00 00    	je     6dd5 <_ZN8Executor7executeEv+0x3385>
    3f6b:	8b 8c 24 80 00 00 00 	mov    0x80(%rsp),%ecx
    3f72:	41 03 44 8e 20       	add    0x20(%r14,%rcx,4),%eax
    3f77:	89 c1                	mov    %eax,%ecx
    3f79:	e9 83 2e 00 00       	jmp    6e01 <_ZN8Executor7executeEv+0x33b1>
    3f7e:	0f b6 5c 11 01       	movzbl 0x1(%rcx,%rdx,1),%ebx
    3f83:	41 8b 7e 20          	mov    0x20(%r14),%edi
    3f87:	e8 c4 e6 00 00       	call   12650 <_Z12get_low_bytej>
    3f8c:	0f b6 f0             	movzbl %al,%esi
    3f8f:	4c 89 f7             	mov    %r14,%rdi
    3f92:	89 da                	mov    %ebx,%edx
    3f94:	e8 87 f2 ff ff       	call   3220 <_ZN3CPU4xor8Ehh>
    3f99:	e9 35 15 00 00       	jmp    54d3 <_ZN8Executor7executeEv+0x1a83>
    3f9e:	41 80 7e 04 00       	cmpb   $0x0,0x4(%r14)
    3fa3:	0f 85 f7 01 00 00    	jne    41a0 <_ZN8Executor7executeEv+0x750>
    3fa9:	41 0f b6 46 05       	movzbl 0x5(%r14),%eax
    3fae:	41 3a 46 06          	cmp    0x6(%r14),%al
    3fb2:	0f 84 dd 01 00 00    	je     4195 <_ZN8Executor7executeEv+0x745>
    3fb8:	e9 e3 01 00 00       	jmp    41a0 <_ZN8Executor7executeEv+0x750>
    3fbd:	41 0f b6 06          	movzbl (%r14),%eax
    3fc1:	41 0a 46 04          	or     0x4(%r14),%al
    3fc5:	0f 85 ca 01 00 00    	jne    4195 <_ZN8Executor7executeEv+0x745>
    3fcb:	e9 d0 01 00 00       	jmp    41a0 <_ZN8Executor7executeEv+0x750>
    3fd0:	4c 89 f7             	mov    %r14,%rdi
    3fd3:	e8 78 ee ff ff       	call   2e50 <_ZN3CPU5pop16Ev>
    3fd8:	66 41 89 46 0a       	mov    %ax,0xa(%r14)
    3fdd:	48 83 44 24 10 01    	addq   $0x1,0x10(%rsp)
    3fe3:	e9 c8 fa ff ff       	jmp    3ab0 <_ZN8Executor7executeEv+0x60>
    3fe8:	0f b6 74 11 01       	movzbl 0x1(%rcx,%rdx,1),%esi
    3fed:	48 8d 7c 24 78       	lea    0x78(%rsp),%rdi
    3ff2:	48 8b 54 24 68       	mov    0x68(%rsp),%rdx
    3ff7:	45 31 c0             	xor    %r8d,%r8d
    3ffa:	e8 11 bf 00 00       	call   ff10 <_Z15decode_modregrmhR6Memorymb>
    3fff:	41 80 be 10 01 00 00 	cmpb   $0x0,0x110(%r14)
    4006:	00 
    4007:	8b 84 24 98 00 00 00 	mov    0x98(%rsp),%eax
    400e:	4d 8d 7c 86 20       	lea    0x20(%r14,%rax,4),%r15
    4013:	41 8b 7c 86 20       	mov    0x20(%r14,%rax,4),%edi
    4018:	4c 89 7c 24 28       	mov    %r15,0x28(%rsp)
    401d:	0f 84 7c 16 00 00    	je     569f <_ZN8Executor7executeEv+0x1c4f>
    4023:	e8 48 e6 00 00       	call   12670 <_Z12get_low_wordj>
    4028:	0f b7 e8             	movzwl %ax,%ebp
    402b:	4c 89 ff             	mov    %r15,%rdi
    402e:	89 ee                	mov    %ebp,%esi
    4030:	e8 cb e6 00 00       	call   12700 <_Z16grh_set_low_wordPjt>
    4035:	44 0f b6 ac 24 90 00 	movzbl 0x90(%rsp),%r13d
    403c:	00 00 
    403e:	45 84 ed             	test   %r13b,%r13b
    4041:	44 88 6c 24 20       	mov    %r13b,0x20(%rsp)
    4046:	0f 84 bd 26 00 00    	je     6709 <_ZN8Executor7executeEv+0x2cb9>
    404c:	8b 44 24 7c          	mov    0x7c(%rsp),%eax
    4050:	80 bc 24 91 00 00 00 	cmpb   $0x0,0x91(%rsp)
    4057:	00 
    4058:	0f 84 0a 2e 00 00    	je     6e68 <_ZN8Executor7executeEv+0x3418>
    405e:	8b 8c 24 80 00 00 00 	mov    0x80(%rsp),%ecx
    4065:	41 03 44 8e 20       	add    0x20(%r14,%rcx,4),%eax
    406a:	89 c1                	mov    %eax,%ecx
    406c:	e9 23 2e 00 00       	jmp    6e94 <_ZN8Executor7executeEv+0x3444>
    4071:	0f b6 74 11 01       	movzbl 0x1(%rcx,%rdx,1),%esi
    4076:	48 8d 7c 24 78       	lea    0x78(%rsp),%rdi
    407b:	48 8b 54 24 68       	mov    0x68(%rsp),%rdx
    4080:	45 31 c0             	xor    %r8d,%r8d
    4083:	e8 88 be 00 00       	call   ff10 <_Z15decode_modregrmhR6Memorymb>
    4088:	41 80 be 10 01 00 00 	cmpb   $0x0,0x110(%r14)
    408f:	00 
    4090:	8b 84 24 98 00 00 00 	mov    0x98(%rsp),%eax
    4097:	4d 8d 6c 86 20       	lea    0x20(%r14,%rax,4),%r13
    409c:	41 8b 7c 86 20       	mov    0x20(%r14,%rax,4),%edi
    40a1:	4c 89 6c 24 28       	mov    %r13,0x28(%rsp)
    40a6:	0f 84 45 16 00 00    	je     56f1 <_ZN8Executor7executeEv+0x1ca1>
    40ac:	e8 bf e5 00 00       	call   12670 <_Z12get_low_wordj>
    40b1:	44 0f b7 e0          	movzwl %ax,%r12d
    40b5:	4c 89 ef             	mov    %r13,%rdi
    40b8:	44 89 e6             	mov    %r12d,%esi
    40bb:	e8 40 e6 00 00       	call   12700 <_Z16grh_set_low_wordPjt>
    40c0:	0f b6 9c 24 90 00 00 	movzbl 0x90(%rsp),%ebx
    40c7:	00 
    40c8:	84 db                	test   %bl,%bl
    40ca:	88 5c 24 18          	mov    %bl,0x18(%rsp)
    40ce:	0f 84 81 26 00 00    	je     6755 <_ZN8Executor7executeEv+0x2d05>
    40d4:	8b 44 24 7c          	mov    0x7c(%rsp),%eax
    40d8:	80 bc 24 91 00 00 00 	cmpb   $0x0,0x91(%rsp)
    40df:	00 
    40e0:	0f 84 16 2e 00 00    	je     6efc <_ZN8Executor7executeEv+0x34ac>
    40e6:	8b 8c 24 80 00 00 00 	mov    0x80(%rsp),%ecx
    40ed:	41 03 44 8e 20       	add    0x20(%r14,%rcx,4),%eax
    40f2:	89 c1                	mov    %eax,%ecx
    40f4:	e9 2f 2e 00 00       	jmp    6f28 <_ZN8Executor7executeEv+0x34d8>
    40f9:	41 0f b7 76 08       	movzwl 0x8(%r14),%esi
    40fe:	e9 c0 fa ff ff       	jmp    3bc3 <_ZN8Executor7executeEv+0x173>
    4103:	48 8b 44 24 58       	mov    0x58(%rsp),%rax
    4108:	80 38 00             	cmpb   $0x0,(%rax)
    410b:	0f 84 2d 16 00 00    	je     573e <_ZN8Executor7executeEv+0x1cee>
    4111:	0f b7 5c 0a 01       	movzwl 0x1(%rdx,%rcx,1),%ebx
    4116:	41 8b 7e 20          	mov    0x20(%r14),%edi
    411a:	e8 51 e5 00 00       	call   12670 <_Z12get_low_wordj>
    411f:	0f b7 f0             	movzwl %ax,%esi
    4122:	4c 89 f7             	mov    %r14,%rdi
    4125:	89 da                	mov    %ebx,%edx
    4127:	e8 f4 e8 ff ff       	call   2a20 <_ZN3CPU5adc16Ett>
    412c:	e9 14 12 00 00       	jmp    5345 <_ZN8Executor7executeEv+0x18f5>
    4131:	48 8b 44 24 58       	mov    0x58(%rsp),%rax
    4136:	80 38 00             	cmpb   $0x0,(%rax)
    4139:	0f 84 14 16 00 00    	je     5753 <_ZN8Executor7executeEv+0x1d03>
    413f:	0f b7 5c 0a 01       	movzwl 0x1(%rdx,%rcx,1),%ebx
    4144:	41 8b 7e 20          	mov    0x20(%r14),%edi
    4148:	e8 23 e5 00 00       	call   12670 <_Z12get_low_wordj>
    414d:	0f b7 f0             	movzwl %ax,%esi
    4150:	4c 89 f7             	mov    %r14,%rdi
    4153:	89 da                	mov    %ebx,%edx
    4155:	e8 26 e9 ff ff       	call   2a80 <_ZN3CPU5and16Ett>
    415a:	e9 e6 11 00 00       	jmp    5345 <_ZN8Executor7executeEv+0x18f5>
    415f:	41 80 7e 04 00       	cmpb   $0x0,0x4(%r14)
    4164:	75 3a                	jne    41a0 <_ZN8Executor7executeEv+0x750>
    4166:	eb 2d                	jmp    4195 <_ZN8Executor7executeEv+0x745>
    4168:	41 80 3e 00          	cmpb   $0x0,(%r14)
    416c:	75 27                	jne    4195 <_ZN8Executor7executeEv+0x745>
    416e:	eb 30                	jmp    41a0 <_ZN8Executor7executeEv+0x750>
    4170:	4c 89 f7             	mov    %r14,%rdi
    4173:	e8 c8 eb ff ff       	call   2d40 <_ZN3CPU3hltEv>
    4178:	48 83 44 24 10 01    	addq   $0x1,0x10(%rsp)
    417e:	e9 2d f9 ff ff       	jmp    3ab0 <_ZN8Executor7executeEv+0x60>
    4183:	41 80 7e 04 00       	cmpb   $0x0,0x4(%r14)
    4188:	75 0b                	jne    4195 <_ZN8Executor7executeEv+0x745>
    418a:	41 0f b6 46 05       	movzbl 0x5(%r14),%eax
    418f:	41 3a 46 06          	cmp    0x6(%r14),%al
    4193:	74 0b                	je     41a0 <_ZN8Executor7executeEv+0x750>
    4195:	48 0f be 44 11 01    	movsbq 0x1(%rcx,%rdx,1),%rax
    419b:	89 c0                	mov    %eax,%eax
    419d:	48 01 c1             	add    %rax,%rcx
    41a0:	48 83 c1 02          	add    $0x2,%rcx
    41a4:	48 89 4c 24 10       	mov    %rcx,0x10(%rsp)
    41a9:	e9 02 f9 ff ff       	jmp    3ab0 <_ZN8Executor7executeEv+0x60>
    41ae:	0f b6 74 11 01       	movzbl 0x1(%rcx,%rdx,1),%esi
    41b3:	48 8d 7c 24 30       	lea    0x30(%rsp),%rdi
    41b8:	48 8b 5c 24 68       	mov    0x68(%rsp),%rbx
    41bd:	48 89 da             	mov    %rbx,%rdx
    41c0:	41 b8 01 00 00 00    	mov    $0x1,%r8d
    41c6:	e8 45 bd 00 00       	call   ff10 <_Z15decode_modregrmhR6Memorymb>
    41cb:	48 8d 7c 24 78       	lea    0x78(%rsp),%rdi
    41d0:	48 8b 74 24 70       	mov    0x70(%rsp),%rsi
    41d5:	48 89 da             	mov    %rbx,%rdx
    41d8:	48 8d 4c 24 34       	lea    0x34(%rsp),%rcx
    41dd:	e8 ee af 00 00       	call   f1d0 <_Z18structure_operandsIhE18StructuredOperandsIT_ERA8_jR6MemoryRK8Operands>
    41e2:	80 bc 24 a0 00 00 00 	cmpb   $0x0,0xa0(%rsp)
    41e9:	00 
    41ea:	0f 84 78 15 00 00    	je     5768 <_ZN8Executor7executeEv+0x1d18>
    41f0:	0f b6 b4 24 98 00 00 	movzbl 0x98(%rsp),%esi
    41f7:	00 
    41f8:	0f b6 94 24 b0 00 00 	movzbl 0xb0(%rsp),%edx
    41ff:	00 
    4200:	4c 89 f7             	mov    %r14,%rdi
    4203:	e8 68 e8 ff ff       	call   2a70 <_ZN3CPU4and8Ehh>
    4208:	88 84 24 98 00 00 00 	mov    %al,0x98(%rsp)
    420f:	e9 73 15 00 00       	jmp    5787 <_ZN8Executor7executeEv+0x1d37>
    4214:	41 80 7e 06 00       	cmpb   $0x0,0x6(%r14)
    4219:	75 85                	jne    41a0 <_ZN8Executor7executeEv+0x750>
    421b:	e9 75 ff ff ff       	jmp    4195 <_ZN8Executor7executeEv+0x745>
    4220:	0f b6 74 11 01       	movzbl 0x1(%rcx,%rdx,1),%esi
    4225:	48 8d 7c 24 30       	lea    0x30(%rsp),%rdi
    422a:	48 8b 5c 24 68       	mov    0x68(%rsp),%rbx
    422f:	48 89 da             	mov    %rbx,%rdx
    4232:	41 b8 01 00 00 00    	mov    $0x1,%r8d
    4238:	e8 d3 bc 00 00       	call   ff10 <_Z15decode_modregrmhR6Memorymb>
    423d:	48 8d 7c 24 78       	lea    0x78(%rsp),%rdi
    4242:	48 8b 74 24 70       	mov    0x70(%rsp),%rsi
    4247:	48 89 da             	mov    %rbx,%rdx
    424a:	48 8d 4c 24 34       	lea    0x34(%rsp),%rcx
    424f:	e8 7c af 00 00       	call   f1d0 <_Z18structure_operandsIhE18StructuredOperandsIT_ERA8_jR6MemoryRK8Operands>
    4254:	80 bc 24 a0 00 00 00 	cmpb   $0x0,0xa0(%rsp)
    425b:	00 
    425c:	0f 84 9f 15 00 00    	je     5801 <_ZN8Executor7executeEv+0x1db1>
    4262:	0f b6 b4 24 98 00 00 	movzbl 0x98(%rsp),%esi
    4269:	00 
    426a:	0f b6 94 24 b0 00 00 	movzbl 0xb0(%rsp),%edx
    4271:	00 
    4272:	4c 89 f7             	mov    %r14,%rdi
    4275:	e8 a6 ef ff ff       	call   3220 <_ZN3CPU4xor8Ehh>
    427a:	88 84 24 98 00 00 00 	mov    %al,0x98(%rsp)
    4281:	e9 9a 15 00 00       	jmp    5820 <_ZN8Executor7executeEv+0x1dd0>
    4286:	48 8b 44 24 58       	mov    0x58(%rsp),%rax
    428b:	80 38 00             	cmpb   $0x0,(%rax)
    428e:	0f 84 06 16 00 00    	je     589a <_ZN8Executor7executeEv+0x1e4a>
    4294:	0f b7 74 0a 01       	movzwl 0x1(%rdx,%rcx,1),%esi
    4299:	4c 89 f7             	mov    %r14,%rdi
    429c:	e8 3f ed ff ff       	call   2fe0 <_ZN3CPU6push16Et>
    42a1:	e9 e5 f8 ff ff       	jmp    3b8b <_ZN8Executor7executeEv+0x13b>
    42a6:	48 8b 44 24 58       	mov    0x58(%rsp),%rax
    42ab:	80 38 00             	cmpb   $0x0,(%rax)
    42ae:	0f 84 05 16 00 00    	je     58b9 <_ZN8Executor7executeEv+0x1e69>
    42b4:	0f b7 5c 0a 01       	movzwl 0x1(%rdx,%rcx,1),%ebx
    42b9:	41 8b 7e 20          	mov    0x20(%r14),%edi
    42bd:	e8 ae e3 00 00       	call   12670 <_Z12get_low_wordj>
    42c2:	0f b7 f0             	movzwl %ax,%esi
    42c5:	4c 89 f7             	mov    %r14,%rdi
    42c8:	89 da                	mov    %ebx,%edx
    42ca:	e8 91 e8 ff ff       	call   2b60 <_ZN3CPU5cmp16Ett>
    42cf:	e9 71 10 00 00       	jmp    5345 <_ZN8Executor7executeEv+0x18f5>
    42d4:	4c 89 f7             	mov    %r14,%rdi
    42d7:	e8 b4 e5 ff ff       	call   2890 <_ZN3CPU3aaaEv>
    42dc:	48 83 44 24 10 01    	addq   $0x1,0x10(%rsp)
    42e2:	e9 c9 f7 ff ff       	jmp    3ab0 <_ZN8Executor7executeEv+0x60>
    42e7:	0f b6 5c 11 01       	movzbl 0x1(%rcx,%rdx,1),%ebx
    42ec:	41 8b 7e 20          	mov    0x20(%r14),%edi
    42f0:	e8 5b e3 00 00       	call   12650 <_Z12get_low_bytej>
    42f5:	0f b6 f0             	movzbl %al,%esi
    42f8:	4c 89 f7             	mov    %r14,%rdi
    42fb:	89 da                	mov    %ebx,%edx
    42fd:	e8 4e e8 ff ff       	call   2b50 <_ZN3CPU4cmp8Ehh>
    4302:	e9 cc 11 00 00       	jmp    54d3 <_ZN8Executor7executeEv+0x1a83>
    4307:	0f b6 74 11 01       	movzbl 0x1(%rcx,%rdx,1),%esi
    430c:	48 8d 7c 24 30       	lea    0x30(%rsp),%rdi
    4311:	48 8b 5c 24 68       	mov    0x68(%rsp),%rbx
    4316:	48 89 da             	mov    %rbx,%rdx
    4319:	41 b8 01 00 00 00    	mov    $0x1,%r8d
    431f:	e8 ec bb 00 00       	call   ff10 <_Z15decode_modregrmhR6Memorymb>
    4324:	48 8d 7c 24 78       	lea    0x78(%rsp),%rdi
    4329:	48 8b 74 24 70       	mov    0x70(%rsp),%rsi
    432e:	48 89 da             	mov    %rbx,%rdx
    4331:	48 8d 4c 24 34       	lea    0x34(%rsp),%rcx
    4336:	e8 95 ae 00 00       	call   f1d0 <_Z18structure_operandsIhE18StructuredOperandsIT_ERA8_jR6MemoryRK8Operands>
    433b:	80 bc 24 a0 00 00 00 	cmpb   $0x0,0xa0(%rsp)
    4342:	00 
    4343:	0f b6 b4 24 b0 00 00 	movzbl 0xb0(%rsp),%esi
    434a:	00 
    434b:	0f 84 7d 15 00 00    	je     58ce <_ZN8Executor7executeEv+0x1e7e>
    4351:	0f b6 94 24 98 00 00 	movzbl 0x98(%rsp),%edx
    4358:	00 
    4359:	4c 89 f7             	mov    %r14,%rdi
    435c:	e8 9f ea ff ff       	call   2e00 <_ZN3CPU3or8Ehh>
    4361:	e9 78 15 00 00       	jmp    58de <_ZN8Executor7executeEv+0x1e8e>
    4366:	0f b6 74 11 01       	movzbl 0x1(%rcx,%rdx,1),%esi
    436b:	8d 46 40             	lea    0x40(%rsi),%eax
    436e:	3c 1f                	cmp    $0x1f,%al
    4370:	0f 87 a3 83 00 00    	ja     c719 <_ZN8Executor7executeEv+0x8cc9>
    4376:	0f b6 c0             	movzbl %al,%eax
    4379:	48 8d 0d 2c f3 00 00 	lea    0xf32c(%rip),%rcx        # 136ac <_ZTS8CPU_HALT+0x66c>
    4380:	48 63 04 81          	movslq (%rcx,%rax,4),%rax
    4384:	48 01 c8             	add    %rcx,%rax
    4387:	ff e0                	jmp    *%rax
    4389:	81 c6 40 ff ff ff    	add    $0xffffff40,%esi
    438f:	48 8b 7c 24 60       	mov    0x60(%rsp),%rdi
    4394:	e8 17 ce 00 00       	call   111b0 <_ZN3FPU7fcmovnbEj>
    4399:	48 83 44 24 10 02    	addq   $0x2,0x10(%rsp)
    439f:	e9 0c f7 ff ff       	jmp    3ab0 <_ZN8Executor7executeEv+0x60>
    43a4:	0f b6 74 11 01       	movzbl 0x1(%rcx,%rdx,1),%esi
    43a9:	48 8d 7c 24 30       	lea    0x30(%rsp),%rdi
    43ae:	48 8b 5c 24 68       	mov    0x68(%rsp),%rbx
    43b3:	48 89 da             	mov    %rbx,%rdx
    43b6:	41 b8 01 00 00 00    	mov    $0x1,%r8d
    43bc:	e8 4f bb 00 00       	call   ff10 <_Z15decode_modregrmhR6Memorymb>
    43c1:	48 8d 7c 24 78       	lea    0x78(%rsp),%rdi
    43c6:	48 8b 74 24 70       	mov    0x70(%rsp),%rsi
    43cb:	48 89 da             	mov    %rbx,%rdx
    43ce:	48 8d 4c 24 34       	lea    0x34(%rsp),%rcx
    43d3:	e8 f8 ad 00 00       	call   f1d0 <_Z18structure_operandsIhE18StructuredOperandsIT_ERA8_jR6MemoryRK8Operands>
    43d8:	80 bc 24 a0 00 00 00 	cmpb   $0x0,0xa0(%rsp)
    43df:	00 
    43e0:	0f 84 74 15 00 00    	je     595a <_ZN8Executor7executeEv+0x1f0a>
    43e6:	0f b6 b4 24 98 00 00 	movzbl 0x98(%rsp),%esi
    43ed:	00 
    43ee:	0f b6 94 24 b0 00 00 	movzbl 0xb0(%rsp),%edx
    43f5:	00 
    43f6:	4c 89 f7             	mov    %r14,%rdi
    43f9:	e8 c2 ed ff ff       	call   31c0 <_ZN3CPU4sbb8Ehh>
    43fe:	88 84 24 98 00 00 00 	mov    %al,0x98(%rsp)
    4405:	e9 6f 15 00 00       	jmp    5979 <_ZN8Executor7executeEv+0x1f29>
    440a:	48 8d 41 01          	lea    0x1(%rcx),%rax
    440e:	48 89 44 24 10       	mov    %rax,0x10(%rsp)
    4413:	0f b6 5c 11 02       	movzbl 0x2(%rcx,%rdx,1),%ebx
    4418:	8d 4b 60             	lea    0x60(%rbx),%ecx
    441b:	80 f9 af             	cmp    $0xaf,%cl
    441e:	0f 87 7c 82 00 00    	ja     c6a0 <_ZN8Executor7executeEv+0x8c50>
    4424:	0f b6 c9             	movzbl %cl,%ecx
    4427:	48 8d 15 9e f5 00 00 	lea    0xf59e(%rip),%rdx        # 139cc <_ZTS8CPU_HALT+0x98c>
    442e:	48 63 0c 8a          	movslq (%rdx,%rcx,4),%rcx
    4432:	48 01 d1             	add    %rdx,%rcx
    4435:	ff e1                	jmp    *%rcx
    4437:	81 c3 38 ff ff ff    	add    $0xffffff38,%ebx
    443d:	4c 89 f7             	mov    %r14,%rdi
    4440:	89 de                	mov    %ebx,%esi
    4442:	e8 69 e2 ff ff       	call   26b0 <_ZN3CPU5regatEi>
    4447:	4c 89 f7             	mov    %r14,%rdi
    444a:	48 89 c6             	mov    %rax,%rsi
    444d:	e8 7e e6 ff ff       	call   2ad0 <_ZN3CPU5bswapERj>
    4452:	e9 59 f6 ff ff       	jmp    3ab0 <_ZN8Executor7executeEv+0x60>
    4457:	4c 89 f7             	mov    %r14,%rdi
    445a:	e8 f1 ed ff ff       	call   3250 <_ZN3CPU3stcEv>
    445f:	48 83 44 24 10 01    	addq   $0x1,0x10(%rsp)
    4465:	e9 46 f6 ff ff       	jmp    3ab0 <_ZN8Executor7executeEv+0x60>
    446a:	48 8b 44 24 58       	mov    0x58(%rsp),%rax
    446f:	80 38 00             	cmpb   $0x0,(%rax)
    4472:	0f 84 7b 15 00 00    	je     59f3 <_ZN8Executor7executeEv+0x1fa3>
    4478:	0f b7 5c 0a 01       	movzwl 0x1(%rdx,%rcx,1),%ebx
    447d:	41 8b 7e 20          	mov    0x20(%r14),%edi
    4481:	e8 ea e1 00 00       	call   12670 <_Z12get_low_wordj>
    4486:	0f b7 f0             	movzwl %ax,%esi
    4489:	4c 89 f7             	mov    %r14,%rdi
    448c:	89 da                	mov    %ebx,%edx
    448e:	e8 9d ed ff ff       	call   3230 <_ZN3CPU5xor16Ett>
    4493:	e9 ad 0e 00 00       	jmp    5345 <_ZN8Executor7executeEv+0x18f5>
    4498:	0f b6 74 11 01       	movzbl 0x1(%rcx,%rdx,1),%esi
    449d:	8d 46 40             	lea    0x40(%rsi),%eax
    44a0:	3c 3f                	cmp    $0x3f,%al
    44a2:	0f 87 f3 82 00 00    	ja     c79b <_ZN8Executor7executeEv+0x8d4b>
    44a8:	0f b6 c0             	movzbl %al,%eax
    44ab:	48 8d 0d fa f2 00 00 	lea    0xf2fa(%rip),%rcx        # 137ac <_ZTS8CPU_HALT+0x76c>
    44b2:	48 63 04 81          	movslq (%rcx,%rax,4),%rax
    44b6:	48 01 c8             	add    %rcx,%rax
    44b9:	ff e0                	jmp    *%rax
    44bb:	81 c6 40 ff ff ff    	add    $0xffffff40,%esi
    44c1:	48 8b 5c 24 60       	mov    0x60(%rsp),%rbx
    44c6:	48 89 df             	mov    %rbx,%rdi
    44c9:	e8 22 c9 00 00       	call   10df0 <_ZN3FPU2stEj>
    44ce:	db 28                	fldt   (%rax)
    44d0:	db 3c 24             	fstpt  (%rsp)
    44d3:	48 89 df             	mov    %rbx,%rdi
    44d6:	e8 b5 d3 00 00       	call   11890 <_ZN3FPU3fldEe>
    44db:	48 83 44 24 10 02    	addq   $0x2,0x10(%rsp)
    44e1:	e9 ca f5 ff ff       	jmp    3ab0 <_ZN8Executor7executeEv+0x60>
    44e6:	0f b6 74 11 01       	movzbl 0x1(%rcx,%rdx,1),%esi
    44eb:	48 8d 7c 24 30       	lea    0x30(%rsp),%rdi
    44f0:	48 8b 5c 24 68       	mov    0x68(%rsp),%rbx
    44f5:	48 89 da             	mov    %rbx,%rdx
    44f8:	41 b8 01 00 00 00    	mov    $0x1,%r8d
    44fe:	e8 0d ba 00 00       	call   ff10 <_Z15decode_modregrmhR6Memorymb>
    4503:	48 8d 7c 24 78       	lea    0x78(%rsp),%rdi
    4508:	48 8b 74 24 70       	mov    0x70(%rsp),%rsi
    450d:	48 89 da             	mov    %rbx,%rdx
    4510:	48 8d 4c 24 34       	lea    0x34(%rsp),%rcx
    4515:	e8 b6 ac 00 00       	call   f1d0 <_Z18structure_operandsIhE18StructuredOperandsIT_ERA8_jR6MemoryRK8Operands>
    451a:	80 bc 24 a0 00 00 00 	cmpb   $0x0,0xa0(%rsp)
    4521:	00 
    4522:	0f 84 e0 14 00 00    	je     5a08 <_ZN8Executor7executeEv+0x1fb8>
    4528:	0f b6 b4 24 98 00 00 	movzbl 0x98(%rsp),%esi
    452f:	00 
    4530:	0f b6 94 24 b0 00 00 	movzbl 0xb0(%rsp),%edx
    4537:	00 
    4538:	4c 89 f7             	mov    %r14,%rdi
    453b:	e8 00 e5 ff ff       	call   2a40 <_ZN3CPU4add8Ehh>
    4540:	88 84 24 98 00 00 00 	mov    %al,0x98(%rsp)
    4547:	e9 db 14 00 00       	jmp    5a27 <_ZN8Executor7executeEv+0x1fd7>
    454c:	0f b6 74 11 01       	movzbl 0x1(%rcx,%rdx,1),%esi
    4551:	48 8d 7c 24 78       	lea    0x78(%rsp),%rdi
    4556:	48 8b 54 24 68       	mov    0x68(%rsp),%rdx
    455b:	45 31 c0             	xor    %r8d,%r8d
    455e:	e8 ad b9 00 00       	call   ff10 <_Z15decode_modregrmhR6Memorymb>
    4563:	41 80 be 10 01 00 00 	cmpb   $0x0,0x110(%r14)
    456a:	00 
    456b:	8b 84 24 98 00 00 00 	mov    0x98(%rsp),%eax
    4572:	4d 8d 6c 86 20       	lea    0x20(%r14,%rax,4),%r13
    4577:	41 8b 7c 86 20       	mov    0x20(%r14,%rax,4),%edi
    457c:	4c 89 6c 24 28       	mov    %r13,0x28(%rsp)
    4581:	0f 84 1a 15 00 00    	je     5aa1 <_ZN8Executor7executeEv+0x2051>
    4587:	e8 e4 e0 00 00       	call   12670 <_Z12get_low_wordj>
    458c:	0f b7 e8             	movzwl %ax,%ebp
    458f:	4c 89 ef             	mov    %r13,%rdi
    4592:	89 ee                	mov    %ebp,%esi
    4594:	e8 67 e1 00 00       	call   12700 <_Z16grh_set_low_wordPjt>
    4599:	44 0f b6 a4 24 90 00 	movzbl 0x90(%rsp),%r12d
    45a0:	00 00 
    45a2:	45 84 e4             	test   %r12b,%r12b
    45a5:	44 88 64 24 18       	mov    %r12b,0x18(%rsp)
    45aa:	0f 84 f1 21 00 00    	je     67a1 <_ZN8Executor7executeEv+0x2d51>
    45b0:	8b 44 24 7c          	mov    0x7c(%rsp),%eax
    45b4:	80 bc 24 91 00 00 00 	cmpb   $0x0,0x91(%rsp)
    45bb:	00 
    45bc:	0f 84 cc 29 00 00    	je     6f8e <_ZN8Executor7executeEv+0x353e>
    45c2:	8b 8c 24 80 00 00 00 	mov    0x80(%rsp),%ecx
    45c9:	41 03 44 8e 20       	add    0x20(%r14,%rcx,4),%eax
    45ce:	89 c1                	mov    %eax,%ecx
    45d0:	e9 e5 29 00 00       	jmp    6fba <_ZN8Executor7executeEv+0x356a>
    45d5:	0f b6 74 11 01       	movzbl 0x1(%rcx,%rdx,1),%esi
    45da:	8d 46 40             	lea    0x40(%rsi),%eax
    45dd:	3c 1f                	cmp    $0x1f,%al
    45df:	0f 87 55 81 00 00    	ja     c73a <_ZN8Executor7executeEv+0x8cea>
    45e5:	0f b6 c0             	movzbl %al,%eax
    45e8:	48 8d 0d 3d f1 00 00 	lea    0xf13d(%rip),%rcx        # 1372c <_ZTS8CPU_HALT+0x6ec>
    45ef:	48 63 04 81          	movslq (%rcx,%rax,4),%rax
    45f3:	48 01 c8             	add    %rcx,%rax
    45f6:	ff e0                	jmp    *%rax
    45f8:	81 c6 40 ff ff ff    	add    $0xffffff40,%esi
    45fe:	48 8b 7c 24 60       	mov    0x60(%rsp),%rdi
    4603:	e8 78 ca 00 00       	call   11080 <_ZN3FPU6fcmovbEj>
    4608:	48 83 44 24 10 02    	addq   $0x2,0x10(%rsp)
    460e:	e9 9d f4 ff ff       	jmp    3ab0 <_ZN8Executor7executeEv+0x60>
    4613:	0f b6 74 11 01       	movzbl 0x1(%rcx,%rdx,1),%esi
    4618:	48 8d 7c 24 78       	lea    0x78(%rsp),%rdi
    461d:	48 8b 54 24 68       	mov    0x68(%rsp),%rdx
    4622:	45 31 c0             	xor    %r8d,%r8d
    4625:	e8 e6 b8 00 00       	call   ff10 <_Z15decode_modregrmhR6Memorymb>
    462a:	41 80 be 10 01 00 00 	cmpb   $0x0,0x110(%r14)
    4631:	00 
    4632:	8b 84 24 98 00 00 00 	mov    0x98(%rsp),%eax
    4639:	4d 8d 6c 86 20       	lea    0x20(%r14,%rax,4),%r13
    463e:	41 8b 7c 86 20       	mov    0x20(%r14,%rax,4),%edi
    4643:	4c 89 6c 24 28       	mov    %r13,0x28(%rsp)
    4648:	0f 84 a0 14 00 00    	je     5aee <_ZN8Executor7executeEv+0x209e>
    464e:	e8 1d e0 00 00       	call   12670 <_Z12get_low_wordj>
    4653:	0f b7 e8             	movzwl %ax,%ebp
    4656:	4c 89 ef             	mov    %r13,%rdi
    4659:	89 ee                	mov    %ebp,%esi
    465b:	e8 a0 e0 00 00       	call   12700 <_Z16grh_set_low_wordPjt>
    4660:	44 0f b6 a4 24 90 00 	movzbl 0x90(%rsp),%r12d
    4667:	00 00 
    4669:	45 84 e4             	test   %r12b,%r12b
    466c:	44 88 64 24 18       	mov    %r12b,0x18(%rsp)
    4671:	0f 84 73 21 00 00    	je     67ea <_ZN8Executor7executeEv+0x2d9a>
    4677:	8b 44 24 7c          	mov    0x7c(%rsp),%eax
    467b:	80 bc 24 91 00 00 00 	cmpb   $0x0,0x91(%rsp)
    4682:	00 
    4683:	0f 84 98 29 00 00    	je     7021 <_ZN8Executor7executeEv+0x35d1>
    4689:	8b 8c 24 80 00 00 00 	mov    0x80(%rsp),%ecx
    4690:	41 03 44 8e 20       	add    0x20(%r14,%rcx,4),%eax
    4695:	89 c1                	mov    %eax,%ecx
    4697:	e9 b1 29 00 00       	jmp    704d <_ZN8Executor7executeEv+0x35fd>
    469c:	0f b6 5c 11 01       	movzbl 0x1(%rcx,%rdx,1),%ebx
    46a1:	8d 43 40             	lea    0x40(%rbx),%eax
    46a4:	3c 3f                	cmp    $0x3f,%al
    46a6:	0f 87 50 81 00 00    	ja     c7fc <_ZN8Executor7executeEv+0x8dac>
    46ac:	0f b6 c0             	movzbl %al,%eax
    46af:	48 8d 0d f6 f1 00 00 	lea    0xf1f6(%rip),%rcx        # 138ac <_ZTS8CPU_HALT+0x86c>
    46b6:	48 63 04 81          	movslq (%rcx,%rax,4),%rax
    46ba:	48 01 c8             	add    %rcx,%rax
    46bd:	ff e0                	jmp    *%rax
    46bf:	81 c3 40 ff ff ff    	add    $0xffffff40,%ebx
    46c5:	48 8b 7c 24 60       	mov    0x60(%rsp),%rdi
    46ca:	89 de                	mov    %ebx,%esi
    46cc:	e8 4f c8 00 00       	call   10f20 <_ZN3FPU4faddEj>
    46d1:	48 83 44 24 10 02    	addq   $0x2,0x10(%rsp)
    46d7:	e9 d4 f3 ff ff       	jmp    3ab0 <_ZN8Executor7executeEv+0x60>
    46dc:	41 0f b6 06          	movzbl (%r14),%eax
    46e0:	41 0a 46 04          	or     0x4(%r14),%al
    46e4:	0f 84 ab fa ff ff    	je     4195 <_ZN8Executor7executeEv+0x745>
    46ea:	e9 b1 fa ff ff       	jmp    41a0 <_ZN8Executor7executeEv+0x750>
    46ef:	80 7c 0a 01 0f       	cmpb   $0xf,0x1(%rdx,%rcx,1)
    46f4:	0f 84 4c 7d 00 00    	je     c446 <_ZN8Executor7executeEv+0x89f6>
    46fa:	48 83 c1 01          	add    $0x1,%rcx
    46fe:	48 8b 44 24 58       	mov    0x58(%rsp),%rax
    4703:	c6 00 01             	movb   $0x1,(%rax)
    4706:	48 89 4c 24 10       	mov    %rcx,0x10(%rsp)
    470b:	e9 a0 f3 ff ff       	jmp    3ab0 <_ZN8Executor7executeEv+0x60>
    4710:	0f b6 74 11 01       	movzbl 0x1(%rcx,%rdx,1),%esi
    4715:	48 8d 7c 24 78       	lea    0x78(%rsp),%rdi
    471a:	48 8b 54 24 68       	mov    0x68(%rsp),%rdx
    471f:	45 31 c0             	xor    %r8d,%r8d
    4722:	e8 e9 b7 00 00       	call   ff10 <_Z15decode_modregrmhR6Memorymb>
    4727:	41 80 be 10 01 00 00 	cmpb   $0x0,0x110(%r14)
    472e:	00 
    472f:	8b 84 24 98 00 00 00 	mov    0x98(%rsp),%eax
    4736:	4d 8d 6c 86 20       	lea    0x20(%r14,%rax,4),%r13
    473b:	41 8b 7c 86 20       	mov    0x20(%r14,%rax,4),%edi
    4740:	4c 89 6c 24 28       	mov    %r13,0x28(%rsp)
    4745:	0f 84 f0 13 00 00    	je     5b3b <_ZN8Executor7executeEv+0x20eb>
    474b:	e8 20 df 00 00       	call   12670 <_Z12get_low_wordj>
    4750:	0f b7 e8             	movzwl %ax,%ebp
    4753:	4c 89 ef             	mov    %r13,%rdi
    4756:	89 ee                	mov    %ebp,%esi
    4758:	e8 a3 df 00 00       	call   12700 <_Z16grh_set_low_wordPjt>
    475d:	44 0f b6 a4 24 90 00 	movzbl 0x90(%rsp),%r12d
    4764:	00 00 
    4766:	45 84 e4             	test   %r12b,%r12b
    4769:	44 88 64 24 18       	mov    %r12b,0x18(%rsp)
    476e:	0f 84 bf 20 00 00    	je     6833 <_ZN8Executor7executeEv+0x2de3>
    4774:	8b 44 24 7c          	mov    0x7c(%rsp),%eax
    4778:	80 bc 24 91 00 00 00 	cmpb   $0x0,0x91(%rsp)
    477f:	00 
    4780:	0f 84 2e 29 00 00    	je     70b4 <_ZN8Executor7executeEv+0x3664>
    4786:	8b 8c 24 80 00 00 00 	mov    0x80(%rsp),%ecx
    478d:	41 03 44 8e 20       	add    0x20(%r14,%rcx,4),%eax
    4792:	89 c1                	mov    %eax,%ecx
    4794:	e9 47 29 00 00       	jmp    70e0 <_ZN8Executor7executeEv+0x3690>
    4799:	4c 89 f7             	mov    %r14,%rdi
    479c:	e8 ff ea ff ff       	call   32a0 <_ZN3CPU4xlatEv>
    47a1:	48 83 44 24 10 01    	addq   $0x1,0x10(%rsp)
    47a7:	e9 04 f3 ff ff       	jmp    3ab0 <_ZN8Executor7executeEv+0x60>
    47ac:	0f b6 74 11 01       	movzbl 0x1(%rcx,%rdx,1),%esi
    47b1:	48 8d 7c 24 30       	lea    0x30(%rsp),%rdi
    47b6:	48 8b 5c 24 68       	mov    0x68(%rsp),%rbx
    47bb:	48 89 da             	mov    %rbx,%rdx
    47be:	41 b8 01 00 00 00    	mov    $0x1,%r8d
    47c4:	e8 47 b7 00 00       	call   ff10 <_Z15decode_modregrmhR6Memorymb>
    47c9:	48 8d 7c 24 78       	lea    0x78(%rsp),%rdi
    47ce:	48 8b 74 24 70       	mov    0x70(%rsp),%rsi
    47d3:	48 89 da             	mov    %rbx,%rdx
    47d6:	48 8d 4c 24 34       	lea    0x34(%rsp),%rcx
    47db:	e8 f0 a9 00 00       	call   f1d0 <_Z18structure_operandsIhE18StructuredOperandsIT_ERA8_jR6MemoryRK8Operands>
    47e0:	80 bc 24 a0 00 00 00 	cmpb   $0x0,0xa0(%rsp)
    47e7:	00 
    47e8:	0f b6 b4 24 b0 00 00 	movzbl 0xb0(%rsp),%esi
    47ef:	00 
    47f0:	0f 84 92 13 00 00    	je     5b88 <_ZN8Executor7executeEv+0x2138>
    47f6:	0f b6 94 24 98 00 00 	movzbl 0x98(%rsp),%edx
    47fd:	00 
    47fe:	4c 89 f7             	mov    %r14,%rdi
    4801:	e8 3a e2 ff ff       	call   2a40 <_ZN3CPU4add8Ehh>
    4806:	e9 8d 13 00 00       	jmp    5b98 <_ZN8Executor7executeEv+0x2148>
    480b:	0f b6 74 11 01       	movzbl 0x1(%rcx,%rdx,1),%esi
    4810:	48 8d 7c 24 30       	lea    0x30(%rsp),%rdi
    4815:	48 8b 5c 24 68       	mov    0x68(%rsp),%rbx
    481a:	48 89 da             	mov    %rbx,%rdx
    481d:	41 b8 01 00 00 00    	mov    $0x1,%r8d
    4823:	e8 e8 b6 00 00       	call   ff10 <_Z15decode_modregrmhR6Memorymb>
    4828:	48 8d 7c 24 78       	lea    0x78(%rsp),%rdi
    482d:	48 8b 74 24 70       	mov    0x70(%rsp),%rsi
    4832:	48 89 da             	mov    %rbx,%rdx
    4835:	48 8d 4c 24 34       	lea    0x34(%rsp),%rcx
    483a:	e8 91 a9 00 00       	call   f1d0 <_Z18structure_operandsIhE18StructuredOperandsIT_ERA8_jR6MemoryRK8Operands>
    483f:	80 bc 24 a0 00 00 00 	cmpb   $0x0,0xa0(%rsp)
    4846:	00 
    4847:	0f b6 b4 24 b0 00 00 	movzbl 0xb0(%rsp),%esi
    484e:	00 
    484f:	0f 84 bf 13 00 00    	je     5c14 <_ZN8Executor7executeEv+0x21c4>
    4855:	0f b6 94 24 98 00 00 	movzbl 0x98(%rsp),%edx
    485c:	00 
    485d:	4c 89 f7             	mov    %r14,%rdi
    4860:	e8 5b e9 ff ff       	call   31c0 <_ZN3CPU4sbb8Ehh>
    4865:	e9 ba 13 00 00       	jmp    5c24 <_ZN8Executor7executeEv+0x21d4>
    486a:	48 8b 44 24 58       	mov    0x58(%rsp),%rax
    486f:	80 38 00             	cmpb   $0x0,(%rax)
    4872:	0f 84 28 14 00 00    	je     5ca0 <_ZN8Executor7executeEv+0x2250>
    4878:	4c 89 f7             	mov    %r14,%rdi
    487b:	e8 80 e7 ff ff       	call   3000 <_ZN3CPU5pushaEv>
    4880:	48 83 44 24 10 01    	addq   $0x1,0x10(%rsp)
    4886:	e9 25 f2 ff ff       	jmp    3ab0 <_ZN8Executor7executeEv+0x60>
    488b:	4c 89 f7             	mov    %r14,%rdi
    488e:	e8 fd e4 ff ff       	call   2d90 <_ZN3CPU4lahfEv>
    4893:	48 83 44 24 10 01    	addq   $0x1,0x10(%rsp)
    4899:	e9 12 f2 ff ff       	jmp    3ab0 <_ZN8Executor7executeEv+0x60>
    489e:	48 8b 44 24 58       	mov    0x58(%rsp),%rax
    48a3:	80 38 00             	cmpb   $0x0,(%rax)
    48a6:	0f 84 07 14 00 00    	je     5cb3 <_ZN8Executor7executeEv+0x2263>
    48ac:	4c 89 f7             	mov    %r14,%rdi
    48af:	e8 2c e2 ff ff       	call   2ae0 <_ZN3CPU3cbwEv>
    48b4:	48 83 44 24 10 01    	addq   $0x1,0x10(%rsp)
    48ba:	e9 f1 f1 ff ff       	jmp    3ab0 <_ZN8Executor7executeEv+0x60>
    48bf:	0f b6 74 11 01       	movzbl 0x1(%rcx,%rdx,1),%esi
    48c4:	48 8d 7c 24 78       	lea    0x78(%rsp),%rdi
    48c9:	48 8b 54 24 68       	mov    0x68(%rsp),%rdx
    48ce:	45 31 c0             	xor    %r8d,%r8d
    48d1:	e8 3a b6 00 00       	call   ff10 <_Z15decode_modregrmhR6Memorymb>
    48d6:	41 80 be 10 01 00 00 	cmpb   $0x0,0x110(%r14)
    48dd:	00 
    48de:	8b 84 24 98 00 00 00 	mov    0x98(%rsp),%eax
    48e5:	4d 8d 7c 86 20       	lea    0x20(%r14,%rax,4),%r15
    48ea:	41 8b 7c 86 20       	mov    0x20(%r14,%rax,4),%edi
    48ef:	4c 89 7c 24 28       	mov    %r15,0x28(%rsp)
    48f4:	0f 84 cc 13 00 00    	je     5cc6 <_ZN8Executor7executeEv+0x2276>
    48fa:	e8 71 dd 00 00       	call   12670 <_Z12get_low_wordj>
    48ff:	0f b7 e8             	movzwl %ax,%ebp
    4902:	4c 89 ff             	mov    %r15,%rdi
    4905:	89 ee                	mov    %ebp,%esi
    4907:	e8 f4 dd 00 00       	call   12700 <_Z16grh_set_low_wordPjt>
    490c:	44 0f b6 ac 24 90 00 	movzbl 0x90(%rsp),%r13d
    4913:	00 00 
    4915:	45 84 ed             	test   %r13b,%r13b
    4918:	44 88 6c 24 20       	mov    %r13b,0x20(%rsp)
    491d:	0f 84 59 1f 00 00    	je     687c <_ZN8Executor7executeEv+0x2e2c>
    4923:	8b 44 24 7c          	mov    0x7c(%rsp),%eax
    4927:	80 bc 24 91 00 00 00 	cmpb   $0x0,0x91(%rsp)
    492e:	00 
    492f:	0f 84 12 28 00 00    	je     7147 <_ZN8Executor7executeEv+0x36f7>
    4935:	8b 8c 24 80 00 00 00 	mov    0x80(%rsp),%ecx
    493c:	41 03 44 8e 20       	add    0x20(%r14,%rcx,4),%eax
    4941:	89 c1                	mov    %eax,%ecx
    4943:	e9 2b 28 00 00       	jmp    7173 <_ZN8Executor7executeEv+0x3723>
    4948:	0f b6 74 11 01       	movzbl 0x1(%rcx,%rdx,1),%esi
    494d:	8d 46 40             	lea    0x40(%rsi),%eax
    4950:	3c 3f                	cmp    $0x3f,%al
    4952:	0f 87 58 f1 ff ff    	ja     3ab0 <_ZN8Executor7executeEv+0x60>
    4958:	0f b6 c0             	movzbl %al,%eax
    495b:	48 8d 0d 4a eb 00 00 	lea    0xeb4a(%rip),%rcx        # 134ac <_ZTS8CPU_HALT+0x46c>
    4962:	48 63 04 81          	movslq (%rcx,%rax,4),%rax
    4966:	48 01 c8             	add    %rcx,%rax
    4969:	ff e0                	jmp    *%rax
    496b:	81 c6 40 ff ff ff    	add    $0xffffff40,%esi
    4971:	48 8b 7c 24 60       	mov    0x60(%rsp),%rdi
    4976:	e8 65 c6 00 00       	call   10fe0 <_ZN3FPU5faddpEj>
    497b:	48 83 44 24 10 02    	addq   $0x2,0x10(%rsp)
    4981:	e9 2a f1 ff ff       	jmp    3ab0 <_ZN8Executor7executeEv+0x60>
    4986:	80 7c 0a 01 0f       	cmpb   $0xf,0x1(%rdx,%rcx,1)
    498b:	0f 84 1f f1 ff ff    	je     3ab0 <_ZN8Executor7executeEv+0x60>
    4991:	e9 4e f1 ff ff       	jmp    3ae4 <_ZN8Executor7executeEv+0x94>
    4996:	0f b6 74 11 01       	movzbl 0x1(%rcx,%rdx,1),%esi
    499b:	48 8d 7c 24 30       	lea    0x30(%rsp),%rdi
    49a0:	48 8b 5c 24 68       	mov    0x68(%rsp),%rbx
    49a5:	48 89 da             	mov    %rbx,%rdx
    49a8:	41 b8 01 00 00 00    	mov    $0x1,%r8d
    49ae:	e8 5d b5 00 00       	call   ff10 <_Z15decode_modregrmhR6Memorymb>
    49b3:	48 8d 7c 24 78       	lea    0x78(%rsp),%rdi
    49b8:	48 8b 74 24 70       	mov    0x70(%rsp),%rsi
    49bd:	48 89 da             	mov    %rbx,%rdx
    49c0:	48 8d 4c 24 34       	lea    0x34(%rsp),%rcx
    49c5:	e8 06 a8 00 00       	call   f1d0 <_Z18structure_operandsIhE18StructuredOperandsIT_ERA8_jR6MemoryRK8Operands>
    49ca:	80 bc 24 a0 00 00 00 	cmpb   $0x0,0xa0(%rsp)
    49d1:	00 
    49d2:	0f 84 40 13 00 00    	je     5d18 <_ZN8Executor7executeEv+0x22c8>
    49d8:	0f b6 b4 24 98 00 00 	movzbl 0x98(%rsp),%esi
    49df:	00 
    49e0:	0f b6 94 24 b0 00 00 	movzbl 0xb0(%rsp),%edx
    49e7:	00 
    49e8:	4c 89 f7             	mov    %r14,%rdi
    49eb:	e8 10 e4 ff ff       	call   2e00 <_ZN3CPU3or8Ehh>
    49f0:	88 84 24 98 00 00 00 	mov    %al,0x98(%rsp)
    49f7:	e9 3b 13 00 00       	jmp    5d37 <_ZN8Executor7executeEv+0x22e7>
    49fc:	4c 89 f7             	mov    %r14,%rdi
    49ff:	e8 6c e7 ff ff       	call   3170 <_ZN3CPU4sahfEv>
    4a04:	48 83 44 24 10 01    	addq   $0x1,0x10(%rsp)
    4a0a:	e9 a1 f0 ff ff       	jmp    3ab0 <_ZN8Executor7executeEv+0x60>
    4a0f:	48 8d 74 24 10       	lea    0x10(%rsp),%rsi
    4a14:	4c 89 f7             	mov    %r14,%rdi
    4a17:	e8 74 eb ff ff       	call   3590 <_ZN8Executor54execute_binary_immediate_regencoded_operation_16_32bitERm>
    4a1c:	e9 8f f0 ff ff       	jmp    3ab0 <_ZN8Executor7executeEv+0x60>
    4a21:	4c 89 f7             	mov    %r14,%rdi
    4a24:	e8 27 e4 ff ff       	call   2e50 <_ZN3CPU5pop16Ev>
    4a29:	66 41 89 46 0e       	mov    %ax,0xe(%r14)
    4a2e:	48 83 44 24 10 01    	addq   $0x1,0x10(%rsp)
    4a34:	e9 77 f0 ff ff       	jmp    3ab0 <_ZN8Executor7executeEv+0x60>
    4a39:	0f b6 74 11 01       	movzbl 0x1(%rcx,%rdx,1),%esi
    4a3e:	4c 89 f7             	mov    %r14,%rdi
    4a41:	e8 ba de ff ff       	call   2900 <_ZN3CPU3aadEh>
    4a46:	48 83 44 24 10 02    	addq   $0x2,0x10(%rsp)
    4a4c:	e9 5f f0 ff ff       	jmp    3ab0 <_ZN8Executor7executeEv+0x60>
    4a51:	0f b6 5c 11 01       	movzbl 0x1(%rcx,%rdx,1),%ebx
    4a56:	41 8b 7e 20          	mov    0x20(%r14),%edi
    4a5a:	e8 f1 db 00 00       	call   12650 <_Z12get_low_bytej>
    4a5f:	0f b6 f0             	movzbl %al,%esi
    4a62:	4c 89 f7             	mov    %r14,%rdi
    4a65:	89 da                	mov    %ebx,%edx
    4a67:	e8 04 e0 ff ff       	call   2a70 <_ZN3CPU4and8Ehh>
    4a6c:	e9 62 0a 00 00       	jmp    54d3 <_ZN8Executor7executeEv+0x1a83>
    4a71:	0f b6 74 11 01       	movzbl 0x1(%rcx,%rdx,1),%esi
    4a76:	48 8d 7c 24 78       	lea    0x78(%rsp),%rdi
    4a7b:	48 8b 54 24 68       	mov    0x68(%rsp),%rdx
    4a80:	45 31 c0             	xor    %r8d,%r8d
    4a83:	e8 88 b4 00 00       	call   ff10 <_Z15decode_modregrmhR6Memorymb>
    4a88:	41 80 be 10 01 00 00 	cmpb   $0x0,0x110(%r14)
    4a8f:	00 
    4a90:	8b 84 24 98 00 00 00 	mov    0x98(%rsp),%eax
    4a97:	4d 8d 6c 86 20       	lea    0x20(%r14,%rax,4),%r13
    4a9c:	41 8b 7c 86 20       	mov    0x20(%r14,%rax,4),%edi
    4aa1:	4c 89 6c 24 28       	mov    %r13,0x28(%rsp)
    4aa6:	0f 84 05 13 00 00    	je     5db1 <_ZN8Executor7executeEv+0x2361>
    4aac:	e8 bf db 00 00       	call   12670 <_Z12get_low_wordj>
    4ab1:	44 0f b7 e0          	movzwl %ax,%r12d
    4ab5:	4c 89 ef             	mov    %r13,%rdi
    4ab8:	44 89 e6             	mov    %r12d,%esi
    4abb:	e8 40 dc 00 00       	call   12700 <_Z16grh_set_low_wordPjt>
    4ac0:	0f b6 9c 24 90 00 00 	movzbl 0x90(%rsp),%ebx
    4ac7:	00 
    4ac8:	84 db                	test   %bl,%bl
    4aca:	88 5c 24 18          	mov    %bl,0x18(%rsp)
    4ace:	0f 84 f4 1d 00 00    	je     68c8 <_ZN8Executor7executeEv+0x2e78>
    4ad4:	8b 44 24 7c          	mov    0x7c(%rsp),%eax
    4ad8:	80 bc 24 91 00 00 00 	cmpb   $0x0,0x91(%rsp)
    4adf:	00 
    4ae0:	0f 84 f5 26 00 00    	je     71db <_ZN8Executor7executeEv+0x378b>
    4ae6:	8b 8c 24 80 00 00 00 	mov    0x80(%rsp),%ecx
    4aed:	41 03 44 8e 20       	add    0x20(%r14,%rcx,4),%eax
    4af2:	89 c1                	mov    %eax,%ecx
    4af4:	e9 0e 27 00 00       	jmp    7207 <_ZN8Executor7executeEv+0x37b7>
    4af9:	48 8b 44 24 58       	mov    0x58(%rsp),%rax
    4afe:	80 38 00             	cmpb   $0x0,(%rax)
    4b01:	0f 84 f7 12 00 00    	je     5dfe <_ZN8Executor7executeEv+0x23ae>
    4b07:	4c 89 f7             	mov    %r14,%rdi
    4b0a:	e8 71 e0 ff ff       	call   2b80 <_ZN3CPU3cwdEv>
    4b0f:	48 83 44 24 10 01    	addq   $0x1,0x10(%rsp)
    4b15:	e9 96 ef ff ff       	jmp    3ab0 <_ZN8Executor7executeEv+0x60>
    4b1a:	0f b6 74 11 01       	movzbl 0x1(%rcx,%rdx,1),%esi
    4b1f:	48 8d 7c 24 78       	lea    0x78(%rsp),%rdi
    4b24:	48 8b 54 24 68       	mov    0x68(%rsp),%rdx
    4b29:	41 b8 01 00 00 00    	mov    $0x1,%r8d
    4b2f:	e8 dc b3 00 00       	call   ff10 <_Z15decode_modregrmhR6Memorymb>
    4b34:	80 bc 24 90 00 00 00 	cmpb   $0x0,0x90(%rsp)
    4b3b:	00 
    4b3c:	0f 84 cf 12 00 00    	je     5e11 <_ZN8Executor7executeEv+0x23c1>
    4b42:	8b 44 24 7c          	mov    0x7c(%rsp),%eax
    4b46:	80 bc 24 91 00 00 00 	cmpb   $0x0,0x91(%rsp)
    4b4d:	00 
    4b4e:	0f 84 7b 1a 00 00    	je     65cf <_ZN8Executor7executeEv+0x2b7f>
    4b54:	8b 8c 24 80 00 00 00 	mov    0x80(%rsp),%ecx
    4b5b:	41 03 44 8e 20       	add    0x20(%r14,%rcx,4),%eax
    4b60:	89 c1                	mov    %eax,%ecx
    4b62:	e9 94 1a 00 00       	jmp    65fb <_ZN8Executor7executeEv+0x2bab>
    4b67:	4c 89 f7             	mov    %r14,%rdi
    4b6a:	e8 61 e0 ff ff       	call   2bd0 <_ZN3CPU3daaEv>
    4b6f:	48 83 44 24 10 01    	addq   $0x1,0x10(%rsp)
    4b75:	e9 36 ef ff ff       	jmp    3ab0 <_ZN8Executor7executeEv+0x60>
    4b7a:	0f b6 5c 11 01       	movzbl 0x1(%rcx,%rdx,1),%ebx
    4b7f:	41 8b 7e 20          	mov    0x20(%r14),%edi
    4b83:	e8 c8 da 00 00       	call   12650 <_Z12get_low_bytej>
    4b88:	0f b6 f0             	movzbl %al,%esi
    4b8b:	4c 89 f7             	mov    %r14,%rdi
    4b8e:	89 da                	mov    %ebx,%edx
    4b90:	e8 7b de ff ff       	call   2a10 <_ZN3CPU4adc8Ehh>
    4b95:	e9 39 09 00 00       	jmp    54d3 <_ZN8Executor7executeEv+0x1a83>
    4b9a:	0f b6 74 11 01       	movzbl 0x1(%rcx,%rdx,1),%esi
    4b9f:	48 8d 7c 24 78       	lea    0x78(%rsp),%rdi
    4ba4:	48 8b 54 24 68       	mov    0x68(%rsp),%rdx
    4ba9:	45 31 c0             	xor    %r8d,%r8d
    4bac:	e8 5f b3 00 00       	call   ff10 <_Z15decode_modregrmhR6Memorymb>
    4bb1:	41 80 be 10 01 00 00 	cmpb   $0x0,0x110(%r14)
    4bb8:	00 
    4bb9:	8b 84 24 98 00 00 00 	mov    0x98(%rsp),%eax
    4bc0:	4d 8d 7c 86 20       	lea    0x20(%r14,%rax,4),%r15
    4bc5:	41 8b 7c 86 20       	mov    0x20(%r14,%rax,4),%edi
    4bca:	4c 89 7c 24 28       	mov    %r15,0x28(%rsp)
    4bcf:	0f 84 7e 12 00 00    	je     5e53 <_ZN8Executor7executeEv+0x2403>
    4bd5:	e8 96 da 00 00       	call   12670 <_Z12get_low_wordj>
    4bda:	0f b7 e8             	movzwl %ax,%ebp
    4bdd:	4c 89 ff             	mov    %r15,%rdi
    4be0:	89 ee                	mov    %ebp,%esi
    4be2:	e8 19 db 00 00       	call   12700 <_Z16grh_set_low_wordPjt>
    4be7:	44 0f b6 ac 24 90 00 	movzbl 0x90(%rsp),%r13d
    4bee:	00 00 
    4bf0:	45 84 ed             	test   %r13b,%r13b
    4bf3:	44 88 6c 24 20       	mov    %r13b,0x20(%rsp)
    4bf8:	0f 84 16 1d 00 00    	je     6914 <_ZN8Executor7executeEv+0x2ec4>
    4bfe:	8b 44 24 7c          	mov    0x7c(%rsp),%eax
    4c02:	80 bc 24 91 00 00 00 	cmpb   $0x0,0x91(%rsp)
    4c09:	00 
    4c0a:	0f 84 5d 26 00 00    	je     726d <_ZN8Executor7executeEv+0x381d>
    4c10:	8b 8c 24 80 00 00 00 	mov    0x80(%rsp),%ecx
    4c17:	41 03 44 8e 20       	add    0x20(%r14,%rcx,4),%eax
    4c1c:	89 c1                	mov    %eax,%ecx
    4c1e:	e9 76 26 00 00       	jmp    7299 <_ZN8Executor7executeEv+0x3849>
    4c23:	41 0f b7 76 0e       	movzwl 0xe(%r14),%esi
    4c28:	e9 96 ef ff ff       	jmp    3bc3 <_ZN8Executor7executeEv+0x173>
    4c2d:	0f b6 74 11 01       	movzbl 0x1(%rcx,%rdx,1),%esi
    4c32:	4c 89 f7             	mov    %r14,%rdi
    4c35:	e8 16 dd ff ff       	call   2950 <_ZN3CPU3aamEh>
    4c3a:	48 83 44 24 10 02    	addq   $0x2,0x10(%rsp)
    4c40:	e9 6b ee ff ff       	jmp    3ab0 <_ZN8Executor7executeEv+0x60>
    4c45:	4c 89 f7             	mov    %r14,%rdi
    4c48:	e8 63 e5 ff ff       	call   31b0 <_ZN3CPU4salcEv>
    4c4d:	48 83 44 24 10 01    	addq   $0x1,0x10(%rsp)
    4c53:	e9 58 ee ff ff       	jmp    3ab0 <_ZN8Executor7executeEv+0x60>
    4c58:	48 8b 44 24 58       	mov    0x58(%rsp),%rax
    4c5d:	80 38 00             	cmpb   $0x0,(%rax)
    4c60:	0f 84 3f 12 00 00    	je     5ea5 <_ZN8Executor7executeEv+0x2455>
    4c66:	0f b7 5c 0a 01       	movzwl 0x1(%rdx,%rcx,1),%ebx
    4c6b:	41 8b 7e 20          	mov    0x20(%r14),%edi
    4c6f:	e8 fc d9 00 00       	call   12670 <_Z12get_low_wordj>
    4c74:	0f b7 f0             	movzwl %ax,%esi
    4c77:	4c 89 f7             	mov    %r14,%rdi
    4c7a:	89 da                	mov    %ebx,%edx
    4c7c:	e8 4f e5 ff ff       	call   31d0 <_ZN3CPU5sbb16Ett>
    4c81:	e9 bf 06 00 00       	jmp    5345 <_ZN8Executor7executeEv+0x18f5>
    4c86:	41 0f b7 76 0c       	movzwl 0xc(%r14),%esi
    4c8b:	e9 33 ef ff ff       	jmp    3bc3 <_ZN8Executor7executeEv+0x173>
    4c90:	4c 89 f7             	mov    %r14,%rdi
    4c93:	e8 f8 dc ff ff       	call   2990 <_ZN3CPU3aasEv>
    4c98:	48 83 44 24 10 01    	addq   $0x1,0x10(%rsp)
    4c9e:	e9 0d ee ff ff       	jmp    3ab0 <_ZN8Executor7executeEv+0x60>
    4ca3:	0f b6 74 11 01       	movzbl 0x1(%rcx,%rdx,1),%esi
    4ca8:	48 8d 7c 24 78       	lea    0x78(%rsp),%rdi
    4cad:	48 8b 54 24 68       	mov    0x68(%rsp),%rdx
    4cb2:	45 31 c0             	xor    %r8d,%r8d
    4cb5:	e8 56 b2 00 00       	call   ff10 <_Z15decode_modregrmhR6Memorymb>
    4cba:	41 80 be 10 01 00 00 	cmpb   $0x0,0x110(%r14)
    4cc1:	00 
    4cc2:	8b 84 24 98 00 00 00 	mov    0x98(%rsp),%eax
    4cc9:	4d 8d 6c 86 20       	lea    0x20(%r14,%rax,4),%r13
    4cce:	41 8b 7c 86 20       	mov    0x20(%r14,%rax,4),%edi
    4cd3:	4c 89 6c 24 28       	mov    %r13,0x28(%rsp)
    4cd8:	0f 84 dc 11 00 00    	je     5eba <_ZN8Executor7executeEv+0x246a>
    4cde:	e8 8d d9 00 00       	call   12670 <_Z12get_low_wordj>
    4ce3:	44 0f b7 e0          	movzwl %ax,%r12d
    4ce7:	4c 89 ef             	mov    %r13,%rdi
    4cea:	44 89 e6             	mov    %r12d,%esi
    4ced:	e8 0e da 00 00       	call   12700 <_Z16grh_set_low_wordPjt>
    4cf2:	0f b6 9c 24 90 00 00 	movzbl 0x90(%rsp),%ebx
    4cf9:	00 
    4cfa:	84 db                	test   %bl,%bl
    4cfc:	88 5c 24 18          	mov    %bl,0x18(%rsp)
    4d00:	0f 84 5a 1c 00 00    	je     6960 <_ZN8Executor7executeEv+0x2f10>
    4d06:	8b 44 24 7c          	mov    0x7c(%rsp),%eax
    4d0a:	80 bc 24 91 00 00 00 	cmpb   $0x0,0x91(%rsp)
    4d11:	00 
    4d12:	0f 84 e9 25 00 00    	je     7301 <_ZN8Executor7executeEv+0x38b1>
    4d18:	8b 8c 24 80 00 00 00 	mov    0x80(%rsp),%ecx
    4d1f:	41 03 44 8e 20       	add    0x20(%r14,%rcx,4),%eax
    4d24:	89 c1                	mov    %eax,%ecx
    4d26:	e9 02 26 00 00       	jmp    732d <_ZN8Executor7executeEv+0x38dd>
    4d2b:	0f b6 74 11 01       	movzbl 0x1(%rcx,%rdx,1),%esi
    4d30:	8d 46 40             	lea    0x40(%rsi),%eax
    4d33:	3c 1f                	cmp    $0x1f,%al
    4d35:	0f 87 75 ed ff ff    	ja     3ab0 <_ZN8Executor7executeEv+0x60>
    4d3b:	0f b6 c8             	movzbl %al,%ecx
    4d3e:	b8 01 00 00 00       	mov    $0x1,%eax
    4d43:	48 d3 e0             	shl    %cl,%rax
    4d46:	84 c0                	test   %al,%al
    4d48:	0f 85 c4 17 00 00    	jne    6512 <_ZN8Executor7executeEv+0x2ac2>
    4d4e:	b8 00 00 ff 00       	mov    $0xff0000,%eax
    4d53:	48 0f a3 c8          	bt     %rcx,%rax
    4d57:	0f 82 9a 17 00 00    	jb     64f7 <_ZN8Executor7executeEv+0x2aa7>
    4d5d:	b8 00 00 00 ff       	mov    $0xff000000,%eax
    4d62:	48 0f a3 c8          	bt     %rcx,%rax
    4d66:	0f 83 44 ed ff ff    	jae    3ab0 <_ZN8Executor7executeEv+0x60>
    4d6c:	81 c6 28 ff ff ff    	add    $0xffffff28,%esi
    4d72:	48 8b 7c 24 60       	mov    0x60(%rsp),%rdi
    4d77:	e8 f4 d2 00 00       	call   12070 <_ZN3FPU4fstpEj>
    4d7c:	48 83 44 24 10 02    	addq   $0x2,0x10(%rsp)
    4d82:	e9 29 ed ff ff       	jmp    3ab0 <_ZN8Executor7executeEv+0x60>
    4d87:	0f b6 74 11 01       	movzbl 0x1(%rcx,%rdx,1),%esi
    4d8c:	48 8d 7c 24 78       	lea    0x78(%rsp),%rdi
    4d91:	48 8b 54 24 68       	mov    0x68(%rsp),%rdx
    4d96:	45 31 c0             	xor    %r8d,%r8d
    4d99:	e8 72 b1 00 00       	call   ff10 <_Z15decode_modregrmhR6Memorymb>
    4d9e:	41 80 be 10 01 00 00 	cmpb   $0x0,0x110(%r14)
    4da5:	00 
    4da6:	8b 84 24 98 00 00 00 	mov    0x98(%rsp),%eax
    4dad:	4d 8d 7c 86 20       	lea    0x20(%r14,%rax,4),%r15
    4db2:	41 8b 7c 86 20       	mov    0x20(%r14,%rax,4),%edi
    4db7:	4c 89 7c 24 28       	mov    %r15,0x28(%rsp)
    4dbc:	0f 84 45 11 00 00    	je     5f07 <_ZN8Executor7executeEv+0x24b7>
    4dc2:	e8 a9 d8 00 00       	call   12670 <_Z12get_low_wordj>
    4dc7:	0f b7 e8             	movzwl %ax,%ebp
    4dca:	4c 89 ff             	mov    %r15,%rdi
    4dcd:	89 ee                	mov    %ebp,%esi
    4dcf:	e8 2c d9 00 00       	call   12700 <_Z16grh_set_low_wordPjt>
    4dd4:	44 0f b6 ac 24 90 00 	movzbl 0x90(%rsp),%r13d
    4ddb:	00 00 
    4ddd:	45 84 ed             	test   %r13b,%r13b
    4de0:	44 88 6c 24 20       	mov    %r13b,0x20(%rsp)
    4de5:	0f 84 c1 1b 00 00    	je     69ac <_ZN8Executor7executeEv+0x2f5c>
    4deb:	8b 44 24 7c          	mov    0x7c(%rsp),%eax
    4def:	80 bc 24 91 00 00 00 	cmpb   $0x0,0x91(%rsp)
    4df6:	00 
    4df7:	0f 84 96 25 00 00    	je     7393 <_ZN8Executor7executeEv+0x3943>
    4dfd:	8b 8c 24 80 00 00 00 	mov    0x80(%rsp),%ecx
    4e04:	41 03 44 8e 20       	add    0x20(%r14,%rcx,4),%eax
    4e09:	89 c1                	mov    %eax,%ecx
    4e0b:	e9 af 25 00 00       	jmp    73bf <_ZN8Executor7executeEv+0x396f>
    4e10:	0f b6 74 11 01       	movzbl 0x1(%rcx,%rdx,1),%esi
    4e15:	48 8d 7c 24 78       	lea    0x78(%rsp),%rdi
    4e1a:	48 8b 54 24 68       	mov    0x68(%rsp),%rdx
    4e1f:	45 31 c0             	xor    %r8d,%r8d
    4e22:	e8 e9 b0 00 00       	call   ff10 <_Z15decode_modregrmhR6Memorymb>
    4e27:	41 80 be 10 01 00 00 	cmpb   $0x0,0x110(%r14)
    4e2e:	00 
    4e2f:	8b 84 24 98 00 00 00 	mov    0x98(%rsp),%eax
    4e36:	4d 8d 6c 86 20       	lea    0x20(%r14,%rax,4),%r13
    4e3b:	41 8b 7c 86 20       	mov    0x20(%r14,%rax,4),%edi
    4e40:	4c 89 6c 24 28       	mov    %r13,0x28(%rsp)
    4e45:	0f 84 0e 11 00 00    	je     5f59 <_ZN8Executor7executeEv+0x2509>
    4e4b:	e8 20 d8 00 00       	call   12670 <_Z12get_low_wordj>
    4e50:	0f b7 e8             	movzwl %ax,%ebp
    4e53:	4c 89 ef             	mov    %r13,%rdi
    4e56:	89 ee                	mov    %ebp,%esi
    4e58:	e8 a3 d8 00 00       	call   12700 <_Z16grh_set_low_wordPjt>
    4e5d:	44 0f b6 a4 24 90 00 	movzbl 0x90(%rsp),%r12d
    4e64:	00 00 
    4e66:	45 84 e4             	test   %r12b,%r12b
    4e69:	44 88 64 24 18       	mov    %r12b,0x18(%rsp)
    4e6e:	0f 84 84 1b 00 00    	je     69f8 <_ZN8Executor7executeEv+0x2fa8>
    4e74:	8b 44 24 7c          	mov    0x7c(%rsp),%eax
    4e78:	80 bc 24 91 00 00 00 	cmpb   $0x0,0x91(%rsp)
    4e7f:	00 
    4e80:	0f 84 a1 25 00 00    	je     7427 <_ZN8Executor7executeEv+0x39d7>
    4e86:	8b 8c 24 80 00 00 00 	mov    0x80(%rsp),%ecx
    4e8d:	41 03 44 8e 20       	add    0x20(%r14,%rcx,4),%eax
    4e92:	89 c1                	mov    %eax,%ecx
    4e94:	e9 ba 25 00 00       	jmp    7453 <_ZN8Executor7executeEv+0x3a03>
    4e99:	0f b6 74 11 01       	movzbl 0x1(%rcx,%rdx,1),%esi
    4e9e:	4c 89 f7             	mov    %r14,%rdi
    4ea1:	e8 1a e1 ff ff       	call   2fc0 <_ZN3CPU5push8Eh>
    4ea6:	48 83 44 24 10 02    	addq   $0x2,0x10(%rsp)
    4eac:	e9 ff eb ff ff       	jmp    3ab0 <_ZN8Executor7executeEv+0x60>
    4eb1:	41 c6 86 10 01 00 00 	movb   $0x1,0x110(%r14)
    4eb8:	01 
    4eb9:	0f b6 74 11 01       	movzbl 0x1(%rcx,%rdx,1),%esi
    4ebe:	48 8d 7c 24 78       	lea    0x78(%rsp),%rdi
    4ec3:	48 8b 54 24 68       	mov    0x68(%rsp),%rdx
    4ec8:	45 31 c0             	xor    %r8d,%r8d
    4ecb:	e8 40 b0 00 00       	call   ff10 <_Z15decode_modregrmhR6Memorymb>
    4ed0:	41 80 be 10 01 00 00 	cmpb   $0x0,0x110(%r14)
    4ed7:	00 
    4ed8:	8b 84 24 98 00 00 00 	mov    0x98(%rsp),%eax
    4edf:	4d 8d 6c 86 20       	lea    0x20(%r14,%rax,4),%r13
    4ee4:	41 8b 7c 86 20       	mov    0x20(%r14,%rax,4),%edi
    4ee9:	4c 89 6c 24 28       	mov    %r13,0x28(%rsp)
    4eee:	0f 84 b2 10 00 00    	je     5fa6 <_ZN8Executor7executeEv+0x2556>
    4ef4:	e8 77 d7 00 00       	call   12670 <_Z12get_low_wordj>
    4ef9:	0f b7 e8             	movzwl %ax,%ebp
    4efc:	4c 89 ef             	mov    %r13,%rdi
    4eff:	89 ee                	mov    %ebp,%esi
    4f01:	e8 fa d7 00 00       	call   12700 <_Z16grh_set_low_wordPjt>
    4f06:	44 0f b6 a4 24 90 00 	movzbl 0x90(%rsp),%r12d
    4f0d:	00 00 
    4f0f:	45 84 e4             	test   %r12b,%r12b
    4f12:	44 88 64 24 18       	mov    %r12b,0x18(%rsp)
    4f17:	0f 84 24 1b 00 00    	je     6a41 <_ZN8Executor7executeEv+0x2ff1>
    4f1d:	8b 44 24 7c          	mov    0x7c(%rsp),%eax
    4f21:	80 bc 24 91 00 00 00 	cmpb   $0x0,0x91(%rsp)
    4f28:	00 
    4f29:	0f 84 8b 25 00 00    	je     74ba <_ZN8Executor7executeEv+0x3a6a>
    4f2f:	8b 8c 24 80 00 00 00 	mov    0x80(%rsp),%ecx
    4f36:	41 03 44 8e 20       	add    0x20(%r14,%rcx,4),%eax
    4f3b:	89 c1                	mov    %eax,%ecx
    4f3d:	e9 a4 25 00 00       	jmp    74e6 <_ZN8Executor7executeEv+0x3a96>
    4f42:	0f b6 74 11 01       	movzbl 0x1(%rcx,%rdx,1),%esi
    4f47:	8d 46 40             	lea    0x40(%rsi),%eax
    4f4a:	3c 3f                	cmp    $0x3f,%al
    4f4c:	0f 87 47 79 00 00    	ja     c899 <_ZN8Executor7executeEv+0x8e49>
    4f52:	0f b6 c0             	movzbl %al,%eax
    4f55:	48 8d 0d 50 e6 00 00 	lea    0xe650(%rip),%rcx        # 135ac <_ZTS8CPU_HALT+0x56c>
    4f5c:	48 63 04 81          	movslq (%rcx,%rax,4),%rax
    4f60:	48 01 c8             	add    %rcx,%rax
    4f63:	ff e0                	jmp    *%rax
    4f65:	81 c6 40 ff ff ff    	add    $0xffffff40,%esi
    4f6b:	48 8b 7c 24 60       	mov    0x60(%rsp),%rdi
    4f70:	e8 0b c0 00 00       	call   10f80 <_ZN3FPU6fadd_rEj>
    4f75:	48 83 44 24 10 02    	addq   $0x2,0x10(%rsp)
    4f7b:	e9 30 eb ff ff       	jmp    3ab0 <_ZN8Executor7executeEv+0x60>
    4f80:	4c 89 f7             	mov    %r14,%rdi
    4f83:	e8 a8 db ff ff       	call   2b30 <_ZN3CPU3cldEv>
    4f88:	48 83 44 24 10 01    	addq   $0x1,0x10(%rsp)
    4f8e:	e9 1d eb ff ff       	jmp    3ab0 <_ZN8Executor7executeEv+0x60>
    4f93:	0f b6 74 11 01       	movzbl 0x1(%rcx,%rdx,1),%esi
    4f98:	48 8d 7c 24 30       	lea    0x30(%rsp),%rdi
    4f9d:	48 8b 5c 24 68       	mov    0x68(%rsp),%rbx
    4fa2:	48 89 da             	mov    %rbx,%rdx
    4fa5:	41 b8 01 00 00 00    	mov    $0x1,%r8d
    4fab:	e8 60 af 00 00       	call   ff10 <_Z15decode_modregrmhR6Memorymb>
    4fb0:	48 8d 7c 24 78       	lea    0x78(%rsp),%rdi
    4fb5:	48 8b 74 24 70       	mov    0x70(%rsp),%rsi
    4fba:	48 89 da             	mov    %rbx,%rdx
    4fbd:	48 8d 4c 24 34       	lea    0x34(%rsp),%rcx
    4fc2:	e8 09 a2 00 00       	call   f1d0 <_Z18structure_operandsIhE18StructuredOperandsIT_ERA8_jR6MemoryRK8Operands>
    4fc7:	80 bc 24 a0 00 00 00 	cmpb   $0x0,0xa0(%rsp)
    4fce:	00 
    4fcf:	0f b6 b4 24 b0 00 00 	movzbl 0xb0(%rsp),%esi
    4fd6:	00 
    4fd7:	0f 84 17 10 00 00    	je     5ff4 <_ZN8Executor7executeEv+0x25a4>
    4fdd:	0f b6 94 24 98 00 00 	movzbl 0x98(%rsp),%edx
    4fe4:	00 
    4fe5:	4c 89 f7             	mov    %r14,%rdi
    4fe8:	e8 63 db ff ff       	call   2b50 <_ZN3CPU4cmp8Ehh>
    4fed:	e9 12 10 00 00       	jmp    6004 <_ZN8Executor7executeEv+0x25b4>
    4ff2:	0f b6 74 11 01       	movzbl 0x1(%rcx,%rdx,1),%esi
    4ff7:	48 8d 7c 24 30       	lea    0x30(%rsp),%rdi
    4ffc:	48 8b 5c 24 68       	mov    0x68(%rsp),%rbx
    5001:	48 89 da             	mov    %rbx,%rdx
    5004:	41 b8 01 00 00 00    	mov    $0x1,%r8d
    500a:	e8 01 af 00 00       	call   ff10 <_Z15decode_modregrmhR6Memorymb>
    500f:	48 8d 7c 24 78       	lea    0x78(%rsp),%rdi
    5014:	48 8b 74 24 70       	mov    0x70(%rsp),%rsi
    5019:	48 89 da             	mov    %rbx,%rdx
    501c:	48 8d 4c 24 34       	lea    0x34(%rsp),%rcx
    5021:	e8 aa a1 00 00       	call   f1d0 <_Z18structure_operandsIhE18StructuredOperandsIT_ERA8_jR6MemoryRK8Operands>
    5026:	80 bc 24 a0 00 00 00 	cmpb   $0x0,0xa0(%rsp)
    502d:	00 
    502e:	0f 84 4c 10 00 00    	je     6080 <_ZN8Executor7executeEv+0x2630>
    5034:	0f b6 b4 24 98 00 00 	movzbl 0x98(%rsp),%esi
    503b:	00 
    503c:	0f b6 94 24 b0 00 00 	movzbl 0xb0(%rsp),%edx
    5043:	00 
    5044:	4c 89 f7             	mov    %r14,%rdi
    5047:	e8 c4 d9 ff ff       	call   2a10 <_ZN3CPU4adc8Ehh>
    504c:	88 84 24 98 00 00 00 	mov    %al,0x98(%rsp)
    5053:	e9 47 10 00 00       	jmp    609f <_ZN8Executor7executeEv+0x264f>
    5058:	4c 89 f7             	mov    %r14,%rdi
    505b:	e8 00 e2 ff ff       	call   3260 <_ZN3CPU3stdEv>
    5060:	48 83 44 24 10 01    	addq   $0x1,0x10(%rsp)
    5066:	e9 45 ea ff ff       	jmp    3ab0 <_ZN8Executor7executeEv+0x60>
    506b:	4c 89 f7             	mov    %r14,%rdi
    506e:	e8 ad da ff ff       	call   2b20 <_ZN3CPU3clcEv>
    5073:	48 83 44 24 10 01    	addq   $0x1,0x10(%rsp)
    5079:	e9 32 ea ff ff       	jmp    3ab0 <_ZN8Executor7executeEv+0x60>
    507e:	0f b6 74 11 01       	movzbl 0x1(%rcx,%rdx,1),%esi
    5083:	48 8d 7c 24 78       	lea    0x78(%rsp),%rdi
    5088:	48 8b 54 24 68       	mov    0x68(%rsp),%rdx
    508d:	45 31 c0             	xor    %r8d,%r8d
    5090:	e8 7b ae 00 00       	call   ff10 <_Z15decode_modregrmhR6Memorymb>
    5095:	41 80 be 10 01 00 00 	cmpb   $0x0,0x110(%r14)
    509c:	00 
    509d:	8b 84 24 98 00 00 00 	mov    0x98(%rsp),%eax
    50a4:	4d 8d 7c 86 20       	lea    0x20(%r14,%rax,4),%r15
    50a9:	41 8b 7c 86 20       	mov    0x20(%r14,%rax,4),%edi
    50ae:	4c 89 7c 24 28       	mov    %r15,0x28(%rsp)
    50b3:	0f 84 60 10 00 00    	je     6119 <_ZN8Executor7executeEv+0x26c9>
    50b9:	e8 b2 d5 00 00       	call   12670 <_Z12get_low_wordj>
    50be:	0f b7 e8             	movzwl %ax,%ebp
    50c1:	4c 89 ff             	mov    %r15,%rdi
    50c4:	89 ee                	mov    %ebp,%esi
    50c6:	e8 35 d6 00 00       	call   12700 <_Z16grh_set_low_wordPjt>
    50cb:	44 0f b6 ac 24 90 00 	movzbl 0x90(%rsp),%r13d
    50d2:	00 00 
    50d4:	45 84 ed             	test   %r13b,%r13b
    50d7:	44 88 6c 24 20       	mov    %r13b,0x20(%rsp)
    50dc:	0f 84 ae 19 00 00    	je     6a90 <_ZN8Executor7executeEv+0x3040>
    50e2:	8b 44 24 7c          	mov    0x7c(%rsp),%eax
    50e6:	80 bc 24 91 00 00 00 	cmpb   $0x0,0x91(%rsp)
    50ed:	00 
    50ee:	0f 84 5a 24 00 00    	je     754e <_ZN8Executor7executeEv+0x3afe>
    50f4:	8b 8c 24 80 00 00 00 	mov    0x80(%rsp),%ecx
    50fb:	41 03 44 8e 20       	add    0x20(%r14,%rcx,4),%eax
    5100:	89 c1                	mov    %eax,%ecx
    5102:	e9 73 24 00 00       	jmp    757a <_ZN8Executor7executeEv+0x3b2a>
    5107:	4c 89 f7             	mov    %r14,%rdi
    510a:	e8 41 dd ff ff       	call   2e50 <_ZN3CPU5pop16Ev>
    510f:	66 41 89 46 0c       	mov    %ax,0xc(%r14)
    5114:	48 83 44 24 10 01    	addq   $0x1,0x10(%rsp)
    511a:	e9 91 e9 ff ff       	jmp    3ab0 <_ZN8Executor7executeEv+0x60>
    511f:	0f b6 74 11 01       	movzbl 0x1(%rcx,%rdx,1),%esi
    5124:	48 8d 7c 24 30       	lea    0x30(%rsp),%rdi
    5129:	48 8b 5c 24 68       	mov    0x68(%rsp),%rbx
    512e:	48 89 da             	mov    %rbx,%rdx
    5131:	41 b8 01 00 00 00    	mov    $0x1,%r8d
    5137:	e8 d4 ad 00 00       	call   ff10 <_Z15decode_modregrmhR6Memorymb>
    513c:	48 8d 7c 24 78       	lea    0x78(%rsp),%rdi
    5141:	48 8b 74 24 70       	mov    0x70(%rsp),%rsi
    5146:	48 89 da             	mov    %rbx,%rdx
    5149:	48 8d 4c 24 34       	lea    0x34(%rsp),%rcx
    514e:	e8 7d a0 00 00       	call   f1d0 <_Z18structure_operandsIhE18StructuredOperandsIT_ERA8_jR6MemoryRK8Operands>
    5153:	80 bc 24 a0 00 00 00 	cmpb   $0x0,0xa0(%rsp)
    515a:	00 
    515b:	0f b6 b4 24 b0 00 00 	movzbl 0xb0(%rsp),%esi
    5162:	00 
    5163:	0f 84 02 10 00 00    	je     616b <_ZN8Executor7executeEv+0x271b>
    5169:	0f b6 94 24 98 00 00 	movzbl 0x98(%rsp),%edx
    5170:	00 
    5171:	4c 89 f7             	mov    %r14,%rdi
    5174:	e8 97 d8 ff ff       	call   2a10 <_ZN3CPU4adc8Ehh>
    5179:	e9 fd 0f 00 00       	jmp    617b <_ZN8Executor7executeEv+0x272b>
    517e:	4c 89 f7             	mov    %r14,%rdi
    5181:	e8 ba d9 ff ff       	call   2b40 <_ZN3CPU3cmcEv>
    5186:	48 83 44 24 10 01    	addq   $0x1,0x10(%rsp)
    518c:	e9 1f e9 ff ff       	jmp    3ab0 <_ZN8Executor7executeEv+0x60>
    5191:	0f b6 74 11 01       	movzbl 0x1(%rcx,%rdx,1),%esi
    5196:	48 8d 7c 24 30       	lea    0x30(%rsp),%rdi
    519b:	48 8b 5c 24 68       	mov    0x68(%rsp),%rbx
    51a0:	48 89 da             	mov    %rbx,%rdx
    51a3:	41 b8 01 00 00 00    	mov    $0x1,%r8d
    51a9:	e8 62 ad 00 00       	call   ff10 <_Z15decode_modregrmhR6Memorymb>
    51ae:	48 8d 7c 24 78       	lea    0x78(%rsp),%rdi
    51b3:	48 8b 74 24 70       	mov    0x70(%rsp),%rsi
    51b8:	48 89 da             	mov    %rbx,%rdx
    51bb:	48 8d 4c 24 34       	lea    0x34(%rsp),%rcx
    51c0:	e8 0b a0 00 00       	call   f1d0 <_Z18structure_operandsIhE18StructuredOperandsIT_ERA8_jR6MemoryRK8Operands>
    51c5:	80 bc 24 a0 00 00 00 	cmpb   $0x0,0xa0(%rsp)
    51cc:	00 
    51cd:	0f b6 b4 24 b0 00 00 	movzbl 0xb0(%rsp),%esi
    51d4:	00 
    51d5:	0f 84 1c 10 00 00    	je     61f7 <_ZN8Executor7executeEv+0x27a7>
    51db:	0f b6 94 24 98 00 00 	movzbl 0x98(%rsp),%edx
    51e2:	00 
    51e3:	4c 89 f7             	mov    %r14,%rdi
    51e6:	e8 35 e0 ff ff       	call   3220 <_ZN3CPU4xor8Ehh>
    51eb:	e9 17 10 00 00       	jmp    6207 <_ZN8Executor7executeEv+0x27b7>
    51f0:	0f b6 74 11 01       	movzbl 0x1(%rcx,%rdx,1),%esi
    51f5:	48 8d 7c 24 78       	lea    0x78(%rsp),%rdi
    51fa:	48 8b 54 24 68       	mov    0x68(%rsp),%rdx
    51ff:	45 31 c0             	xor    %r8d,%r8d
    5202:	e8 09 ad 00 00       	call   ff10 <_Z15decode_modregrmhR6Memorymb>
    5207:	41 80 be 10 01 00 00 	cmpb   $0x0,0x110(%r14)
    520e:	00 
    520f:	8b 84 24 98 00 00 00 	mov    0x98(%rsp),%eax
    5216:	4d 8d 6c 86 20       	lea    0x20(%r14,%rax,4),%r13
    521b:	41 8b 7c 86 20       	mov    0x20(%r14,%rax,4),%edi
    5220:	4c 89 6c 24 28       	mov    %r13,0x28(%rsp)
    5225:	0f 84 58 10 00 00    	je     6283 <_ZN8Executor7executeEv+0x2833>
    522b:	e8 40 d4 00 00       	call   12670 <_Z12get_low_wordj>
    5230:	0f b7 e8             	movzwl %ax,%ebp
    5233:	4c 89 ef             	mov    %r13,%rdi
    5236:	89 ee                	mov    %ebp,%esi
    5238:	e8 c3 d4 00 00       	call   12700 <_Z16grh_set_low_wordPjt>
    523d:	44 0f b6 a4 24 90 00 	movzbl 0x90(%rsp),%r12d
    5244:	00 00 
    5246:	45 84 e4             	test   %r12b,%r12b
    5249:	44 88 64 24 18       	mov    %r12b,0x18(%rsp)
    524e:	0f 84 88 18 00 00    	je     6adc <_ZN8Executor7executeEv+0x308c>
    5254:	8b 44 24 7c          	mov    0x7c(%rsp),%eax
    5258:	80 bc 24 91 00 00 00 	cmpb   $0x0,0x91(%rsp)
    525f:	00 
    5260:	0f 84 7c 23 00 00    	je     75e2 <_ZN8Executor7executeEv+0x3b92>
    5266:	8b 8c 24 80 00 00 00 	mov    0x80(%rsp),%ecx
    526d:	41 03 44 8e 20       	add    0x20(%r14,%rcx,4),%eax
    5272:	89 c1                	mov    %eax,%ecx
    5274:	e9 95 23 00 00       	jmp    760e <_ZN8Executor7executeEv+0x3bbe>
    5279:	41 0f b7 76 0a       	movzwl 0xa(%r14),%esi
    527e:	e9 40 e9 ff ff       	jmp    3bc3 <_ZN8Executor7executeEv+0x173>
    5283:	4c 89 f7             	mov    %r14,%rdi
    5286:	e8 e5 d9 ff ff       	call   2c70 <_ZN3CPU3dasEv>
    528b:	48 83 44 24 10 01    	addq   $0x1,0x10(%rsp)
    5291:	e9 1a e8 ff ff       	jmp    3ab0 <_ZN8Executor7executeEv+0x60>
    5296:	0f b6 5c 11 01       	movzbl 0x1(%rcx,%rdx,1),%ebx
    529b:	41 8b 7e 20          	mov    0x20(%r14),%edi
    529f:	e8 ac d3 00 00       	call   12650 <_Z12get_low_bytej>
    52a4:	0f b6 f0             	movzbl %al,%esi
    52a7:	4c 89 f7             	mov    %r14,%rdi
    52aa:	89 da                	mov    %ebx,%edx
    52ac:	e8 4f db ff ff       	call   2e00 <_ZN3CPU3or8Ehh>
    52b1:	e9 1d 02 00 00       	jmp    54d3 <_ZN8Executor7executeEv+0x1a83>
    52b6:	0f b6 74 11 01       	movzbl 0x1(%rcx,%rdx,1),%esi
    52bb:	48 8d 7c 24 30       	lea    0x30(%rsp),%rdi
    52c0:	48 8b 5c 24 68       	mov    0x68(%rsp),%rbx
    52c5:	48 89 da             	mov    %rbx,%rdx
    52c8:	41 b8 01 00 00 00    	mov    $0x1,%r8d
    52ce:	e8 3d ac 00 00       	call   ff10 <_Z15decode_modregrmhR6Memorymb>
    52d3:	48 8d 7c 24 78       	lea    0x78(%rsp),%rdi
    52d8:	48 8b 74 24 70       	mov    0x70(%rsp),%rsi
    52dd:	48 89 da             	mov    %rbx,%rdx
    52e0:	48 8d 4c 24 34       	lea    0x34(%rsp),%rcx
    52e5:	e8 e6 9e 00 00       	call   f1d0 <_Z18structure_operandsIhE18StructuredOperandsIT_ERA8_jR6MemoryRK8Operands>
    52ea:	80 bc 24 a0 00 00 00 	cmpb   $0x0,0xa0(%rsp)
    52f1:	00 
    52f2:	0f 84 d9 0f 00 00    	je     62d1 <_ZN8Executor7executeEv+0x2881>
    52f8:	0f b6 b4 24 98 00 00 	movzbl 0x98(%rsp),%esi
    52ff:	00 
    5300:	0f b6 94 24 b0 00 00 	movzbl 0xb0(%rsp),%edx
    5307:	00 
    5308:	4c 89 f7             	mov    %r14,%rdi
    530b:	e8 e0 de ff ff       	call   31f0 <_ZN3CPU4sub8Ehh>
    5310:	88 84 24 98 00 00 00 	mov    %al,0x98(%rsp)
    5317:	e9 d4 0f 00 00       	jmp    62f0 <_ZN8Executor7executeEv+0x28a0>
    531c:	48 8b 44 24 58       	mov    0x58(%rsp),%rax
    5321:	80 38 00             	cmpb   $0x0,(%rax)
    5324:	0f 84 40 10 00 00    	je     636a <_ZN8Executor7executeEv+0x291a>
    532a:	0f b7 5c 0a 01       	movzwl 0x1(%rdx,%rcx,1),%ebx
    532f:	41 8b 7e 20          	mov    0x20(%r14),%edi
    5333:	e8 38 d3 00 00       	call   12670 <_Z12get_low_wordj>
    5338:	0f b7 f0             	movzwl %ax,%esi
    533b:	4c 89 f7             	mov    %r14,%rdi
    533e:	89 da                	mov    %ebx,%edx
    5340:	e8 bb de ff ff       	call   3200 <_ZN3CPU5sub16Ett>
    5345:	0f b7 f0             	movzwl %ax,%esi
    5348:	48 8b 7c 24 70       	mov    0x70(%rsp),%rdi
    534d:	e8 0e d3 00 00       	call   12660 <_Z12set_low_wordRjt>
    5352:	b8 03 00 00 00       	mov    $0x3,%eax
    5357:	48 01 44 24 10       	add    %rax,0x10(%rsp)
    535c:	e9 4f e7 ff ff       	jmp    3ab0 <_ZN8Executor7executeEv+0x60>
    5361:	0f b6 74 11 01       	movzbl 0x1(%rcx,%rdx,1),%esi
    5366:	48 8d 7c 24 30       	lea    0x30(%rsp),%rdi
    536b:	48 8b 5c 24 68       	mov    0x68(%rsp),%rbx
    5370:	48 89 da             	mov    %rbx,%rdx
    5373:	41 b8 01 00 00 00    	mov    $0x1,%r8d
    5379:	e8 92 ab 00 00       	call   ff10 <_Z15decode_modregrmhR6Memorymb>
    537e:	48 8d 7c 24 78       	lea    0x78(%rsp),%rdi
    5383:	48 8b 74 24 70       	mov    0x70(%rsp),%rsi
    5388:	48 89 da             	mov    %rbx,%rdx
    538b:	48 8d 4c 24 34       	lea    0x34(%rsp),%rcx
    5390:	e8 3b 9e 00 00       	call   f1d0 <_Z18structure_operandsIhE18StructuredOperandsIT_ERA8_jR6MemoryRK8Operands>
    5395:	80 bc 24 a0 00 00 00 	cmpb   $0x0,0xa0(%rsp)
    539c:	00 
    539d:	0f b6 b4 24 b0 00 00 	movzbl 0xb0(%rsp),%esi
    53a4:	00 
    53a5:	0f 84 e2 0f 00 00    	je     638d <_ZN8Executor7executeEv+0x293d>
    53ab:	0f b6 94 24 98 00 00 	movzbl 0x98(%rsp),%edx
    53b2:	00 
    53b3:	4c 89 f7             	mov    %r14,%rdi
    53b6:	e8 b5 d6 ff ff       	call   2a70 <_ZN3CPU4and8Ehh>
    53bb:	e9 dd 0f 00 00       	jmp    639d <_ZN8Executor7executeEv+0x294d>
    53c0:	0f b6 74 11 01       	movzbl 0x1(%rcx,%rdx,1),%esi
    53c5:	48 8d 7c 24 78       	lea    0x78(%rsp),%rdi
    53ca:	48 8b 54 24 68       	mov    0x68(%rsp),%rdx
    53cf:	45 31 c0             	xor    %r8d,%r8d
    53d2:	e8 39 ab 00 00       	call   ff10 <_Z15decode_modregrmhR6Memorymb>
    53d7:	41 80 be 10 01 00 00 	cmpb   $0x0,0x110(%r14)
    53de:	00 
    53df:	8b 84 24 98 00 00 00 	mov    0x98(%rsp),%eax
    53e6:	4d 8d 7c 86 20       	lea    0x20(%r14,%rax,4),%r15
    53eb:	41 8b 7c 86 20       	mov    0x20(%r14,%rax,4),%edi
    53f0:	4c 89 7c 24 28       	mov    %r15,0x28(%rsp)
    53f5:	0f 84 1e 10 00 00    	je     6419 <_ZN8Executor7executeEv+0x29c9>
    53fb:	e8 70 d2 00 00       	call   12670 <_Z12get_low_wordj>
    5400:	0f b7 e8             	movzwl %ax,%ebp
    5403:	4c 89 ff             	mov    %r15,%rdi
    5406:	89 ee                	mov    %ebp,%esi
    5408:	e8 f3 d2 00 00       	call   12700 <_Z16grh_set_low_wordPjt>
    540d:	44 0f b6 ac 24 90 00 	movzbl 0x90(%rsp),%r13d
    5414:	00 00 
    5416:	45 84 ed             	test   %r13b,%r13b
    5419:	44 88 6c 24 20       	mov    %r13b,0x20(%rsp)
    541e:	0f 84 07 17 00 00    	je     6b2b <_ZN8Executor7executeEv+0x30db>
    5424:	8b 44 24 7c          	mov    0x7c(%rsp),%eax
    5428:	80 bc 24 91 00 00 00 	cmpb   $0x0,0x91(%rsp)
    542f:	00 
    5430:	0f 84 40 22 00 00    	je     7676 <_ZN8Executor7executeEv+0x3c26>
    5436:	8b 8c 24 80 00 00 00 	mov    0x80(%rsp),%ecx
    543d:	41 03 44 8e 20       	add    0x20(%r14,%rcx,4),%eax
    5442:	89 c1                	mov    %eax,%ecx
    5444:	e9 59 22 00 00       	jmp    76a2 <_ZN8Executor7executeEv+0x3c52>
    5449:	41 80 7e 06 00       	cmpb   $0x0,0x6(%r14)
    544e:	0f 85 41 ed ff ff    	jne    4195 <_ZN8Executor7executeEv+0x745>
    5454:	e9 47 ed ff ff       	jmp    41a0 <_ZN8Executor7executeEv+0x750>
    5459:	0f b6 74 11 01       	movzbl 0x1(%rcx,%rdx,1),%esi
    545e:	48 8d 7c 24 30       	lea    0x30(%rsp),%rdi
    5463:	48 8b 5c 24 68       	mov    0x68(%rsp),%rbx
    5468:	48 89 da             	mov    %rbx,%rdx
    546b:	41 b8 01 00 00 00    	mov    $0x1,%r8d
    5471:	e8 9a aa 00 00       	call   ff10 <_Z15decode_modregrmhR6Memorymb>
    5476:	48 8d 7c 24 78       	lea    0x78(%rsp),%rdi
    547b:	48 8b 74 24 70       	mov    0x70(%rsp),%rsi
    5480:	48 89 da             	mov    %rbx,%rdx
    5483:	48 8d 4c 24 34       	lea    0x34(%rsp),%rcx
    5488:	e8 43 9d 00 00       	call   f1d0 <_Z18structure_operandsIhE18StructuredOperandsIT_ERA8_jR6MemoryRK8Operands>
    548d:	80 bc 24 a0 00 00 00 	cmpb   $0x0,0xa0(%rsp)
    5494:	00 
    5495:	0f b6 b4 24 b0 00 00 	movzbl 0xb0(%rsp),%esi
    549c:	00 
    549d:	0f 84 c8 0f 00 00    	je     646b <_ZN8Executor7executeEv+0x2a1b>
    54a3:	0f b6 94 24 98 00 00 	movzbl 0x98(%rsp),%edx
    54aa:	00 
    54ab:	4c 89 f7             	mov    %r14,%rdi
    54ae:	e8 3d dd ff ff       	call   31f0 <_ZN3CPU4sub8Ehh>
    54b3:	e9 c3 0f 00 00       	jmp    647b <_ZN8Executor7executeEv+0x2a2b>
    54b8:	0f b6 5c 11 01       	movzbl 0x1(%rcx,%rdx,1),%ebx
    54bd:	41 8b 7e 20          	mov    0x20(%r14),%edi
    54c1:	e8 8a d1 00 00       	call   12650 <_Z12get_low_bytej>
    54c6:	0f b6 f0             	movzbl %al,%esi
    54c9:	4c 89 f7             	mov    %r14,%rdi
    54cc:	89 da                	mov    %ebx,%edx
    54ce:	e8 1d dd ff ff       	call   31f0 <_ZN3CPU4sub8Ehh>
    54d3:	0f b6 f0             	movzbl %al,%esi
    54d6:	48 8b 7c 24 70       	mov    0x70(%rsp),%rdi
    54db:	e8 60 d1 00 00       	call   12640 <_Z12set_low_byteRjh>
    54e0:	48 83 44 24 10 02    	addq   $0x2,0x10(%rsp)
    54e6:	e9 c5 e5 ff ff       	jmp    3ab0 <_ZN8Executor7executeEv+0x60>
    54eb:	41 80 7e 05 00       	cmpb   $0x0,0x5(%r14)
    54f0:	0f 85 9f ec ff ff    	jne    4195 <_ZN8Executor7executeEv+0x745>
    54f6:	e9 a5 ec ff ff       	jmp    41a0 <_ZN8Executor7executeEv+0x750>
    54fb:	41 80 7e 02 00       	cmpb   $0x0,0x2(%r14)
    5500:	0f 85 8f ec ff ff    	jne    4195 <_ZN8Executor7executeEv+0x745>
    5506:	e9 95 ec ff ff       	jmp    41a0 <_ZN8Executor7executeEv+0x750>
    550b:	e8 20 d2 00 00       	call   12730 <_Z11null_getterj>
    5510:	4c 89 ef             	mov    %r13,%rdi
    5513:	89 44 24 18          	mov    %eax,0x18(%rsp)
    5517:	89 c6                	mov    %eax,%esi
    5519:	e8 02 d2 00 00       	call   12720 <_Z15grh_null_setterPjj>
    551e:	0f b6 ac 24 90 00 00 	movzbl 0x90(%rsp),%ebp
    5525:	00 
    5526:	40 84 ed             	test   %bpl,%bpl
    5529:	40 88 6c 24 20       	mov    %bpl,0x20(%rsp)
    552e:	0f 84 40 22 00 00    	je     7774 <_ZN8Executor7executeEv+0x3d24>
    5534:	8b 44 24 7c          	mov    0x7c(%rsp),%eax
    5538:	80 bc 24 91 00 00 00 	cmpb   $0x0,0x91(%rsp)
    553f:	00 
    5540:	0f 84 1b 29 00 00    	je     7e61 <_ZN8Executor7executeEv+0x4411>
    5546:	8b 8c 24 80 00 00 00 	mov    0x80(%rsp),%ecx
    554d:	41 03 44 8e 20       	add    0x20(%r14,%rcx,4),%eax
    5552:	89 c1                	mov    %eax,%ecx
    5554:	e9 34 29 00 00       	jmp    7e8d <_ZN8Executor7executeEv+0x443d>
    5559:	4c 89 f7             	mov    %r14,%rdi
    555c:	e8 ff d9 ff ff       	call   2f60 <_ZN3CPU5popadEv>
    5561:	48 83 44 24 10 01    	addq   $0x1,0x10(%rsp)
    5567:	e9 44 e5 ff ff       	jmp    3ab0 <_ZN8Executor7executeEv+0x60>
    556c:	0f b6 b4 24 80 00 00 	movzbl 0x80(%rsp),%esi
    5573:	00 
    5574:	0f b6 94 24 b0 00 00 	movzbl 0xb0(%rsp),%edx
    557b:	00 
    557c:	4c 89 f7             	mov    %r14,%rdi
    557f:	e8 cc d5 ff ff       	call   2b50 <_ZN3CPU4cmp8Ehh>
    5584:	88 84 24 80 00 00 00 	mov    %al,0x80(%rsp)
    558b:	8b 44 24 30          	mov    0x30(%rsp),%eax
    558f:	48 01 44 24 10       	add    %rax,0x10(%rsp)
    5594:	48 8b 44 24 58       	mov    0x58(%rsp),%rax
    5599:	c6 00 00             	movb   $0x0,(%rax)
    559c:	48 8b bc 24 a8 00 00 	mov    0xa8(%rsp),%rdi
    55a3:	00 
    55a4:	48 85 ff             	test   %rdi,%rdi
    55a7:	74 17                	je     55c0 <_ZN8Executor7executeEv+0x1b70>
    55a9:	48 8b 84 24 b8 00 00 	mov    0xb8(%rsp),%rax
    55b0:	00 
    55b1:	48 85 c0             	test   %rax,%rax
    55b4:	74 0a                	je     55c0 <_ZN8Executor7executeEv+0x1b70>
    55b6:	0f b6 b4 24 b0 00 00 	movzbl 0xb0(%rsp),%esi
    55bd:	00 
    55be:	ff d0                	call   *%rax
    55c0:	48 8b 84 24 90 00 00 	mov    0x90(%rsp),%rax
    55c7:	00 
    55c8:	48 85 c0             	test   %rax,%rax
    55cb:	74 0a                	je     55d7 <_ZN8Executor7executeEv+0x1b87>
    55cd:	0f b6 8c 24 98 00 00 	movzbl 0x98(%rsp),%ecx
    55d4:	00 
    55d5:	88 08                	mov    %cl,(%rax)
    55d7:	48 8b 7c 24 78       	mov    0x78(%rsp),%rdi
    55dc:	48 85 ff             	test   %rdi,%rdi
    55df:	0f 84 cb e4 ff ff    	je     3ab0 <_ZN8Executor7executeEv+0x60>
    55e5:	48 8b 84 24 88 00 00 	mov    0x88(%rsp),%rax
    55ec:	00 
    55ed:	48 85 c0             	test   %rax,%rax
    55f0:	0f 84 ba e4 ff ff    	je     3ab0 <_ZN8Executor7executeEv+0x60>
    55f6:	0f b6 b4 24 80 00 00 	movzbl 0x80(%rsp),%esi
    55fd:	00 
    55fe:	ff d0                	call   *%rax
    5600:	e9 ab e4 ff ff       	jmp    3ab0 <_ZN8Executor7executeEv+0x60>
    5605:	e8 26 d1 00 00       	call   12730 <_Z11null_getterj>
    560a:	89 c5                	mov    %eax,%ebp
    560c:	4c 89 ef             	mov    %r13,%rdi
    560f:	89 c6                	mov    %eax,%esi
    5611:	e8 0a d1 00 00       	call   12720 <_Z15grh_null_setterPjj>
    5616:	44 0f b6 bc 24 90 00 	movzbl 0x90(%rsp),%r15d
    561d:	00 00 
    561f:	45 84 ff             	test   %r15b,%r15b
    5622:	44 88 7c 24 20       	mov    %r15b,0x20(%rsp)
    5627:	0f 84 9a 21 00 00    	je     77c7 <_ZN8Executor7executeEv+0x3d77>
    562d:	8b 44 24 7c          	mov    0x7c(%rsp),%eax
    5631:	80 bc 24 91 00 00 00 	cmpb   $0x0,0x91(%rsp)
    5638:	00 
    5639:	0f 84 ba 28 00 00    	je     7ef9 <_ZN8Executor7executeEv+0x44a9>
    563f:	8b 8c 24 80 00 00 00 	mov    0x80(%rsp),%ecx
    5646:	41 03 44 8e 20       	add    0x20(%r14,%rcx,4),%eax
    564b:	89 c1                	mov    %eax,%ecx
    564d:	e9 d3 28 00 00       	jmp    7f25 <_ZN8Executor7executeEv+0x44d5>
    5652:	e8 d9 d0 00 00       	call   12730 <_Z11null_getterj>
    5657:	89 c5                	mov    %eax,%ebp
    5659:	4c 89 ef             	mov    %r13,%rdi
    565c:	89 c6                	mov    %eax,%esi
    565e:	e8 bd d0 00 00       	call   12720 <_Z15grh_null_setterPjj>
    5663:	44 0f b6 bc 24 90 00 	movzbl 0x90(%rsp),%r15d
    566a:	00 00 
    566c:	45 84 ff             	test   %r15b,%r15b
    566f:	44 88 7c 24 20       	mov    %r15b,0x20(%rsp)
    5674:	0f 84 99 21 00 00    	je     7813 <_ZN8Executor7executeEv+0x3dc3>
    567a:	8b 44 24 7c          	mov    0x7c(%rsp),%eax
    567e:	80 bc 24 91 00 00 00 	cmpb   $0x0,0x91(%rsp)
    5685:	00 
    5686:	0f 84 fd 28 00 00    	je     7f89 <_ZN8Executor7executeEv+0x4539>
    568c:	8b 8c 24 80 00 00 00 	mov    0x80(%rsp),%ecx
    5693:	41 03 44 8e 20       	add    0x20(%r14,%rcx,4),%eax
    5698:	89 c1                	mov    %eax,%ecx
    569a:	e9 16 29 00 00       	jmp    7fb5 <_ZN8Executor7executeEv+0x4565>
    569f:	e8 8c d0 00 00       	call   12730 <_Z11null_getterj>
    56a4:	4c 89 ff             	mov    %r15,%rdi
    56a7:	89 44 24 18          	mov    %eax,0x18(%rsp)
    56ab:	89 c6                	mov    %eax,%esi
    56ad:	e8 6e d0 00 00       	call   12720 <_Z15grh_null_setterPjj>
    56b2:	44 0f b6 ac 24 90 00 	movzbl 0x90(%rsp),%r13d
    56b9:	00 00 
    56bb:	45 84 ed             	test   %r13b,%r13b
    56be:	44 88 ac 24 00 02 00 	mov    %r13b,0x200(%rsp)
    56c5:	00 
    56c6:	0f 84 93 21 00 00    	je     785f <_ZN8Executor7executeEv+0x3e0f>
    56cc:	8b 44 24 7c          	mov    0x7c(%rsp),%eax
    56d0:	80 bc 24 91 00 00 00 	cmpb   $0x0,0x91(%rsp)
    56d7:	00 
    56d8:	0f 84 3b 29 00 00    	je     8019 <_ZN8Executor7executeEv+0x45c9>
    56de:	8b 8c 24 80 00 00 00 	mov    0x80(%rsp),%ecx
    56e5:	41 03 44 8e 20       	add    0x20(%r14,%rcx,4),%eax
    56ea:	89 c1                	mov    %eax,%ecx
    56ec:	e9 54 29 00 00       	jmp    8045 <_ZN8Executor7executeEv+0x45f5>
    56f1:	e8 3a d0 00 00       	call   12730 <_Z11null_getterj>
    56f6:	41 89 c7             	mov    %eax,%r15d
    56f9:	4c 89 ef             	mov    %r13,%rdi
    56fc:	89 c6                	mov    %eax,%esi
    56fe:	e8 1d d0 00 00       	call   12720 <_Z15grh_null_setterPjj>
    5703:	0f b6 ac 24 90 00 00 	movzbl 0x90(%rsp),%ebp
    570a:	00 
    570b:	40 84 ed             	test   %bpl,%bpl
    570e:	40 88 6c 24 18       	mov    %bpl,0x18(%rsp)
    5713:	0f 84 97 21 00 00    	je     78b0 <_ZN8Executor7executeEv+0x3e60>
    5719:	8b 44 24 7c          	mov    0x7c(%rsp),%eax
    571d:	80 bc 24 91 00 00 00 	cmpb   $0x0,0x91(%rsp)
    5724:	00 
    5725:	0f 84 84 29 00 00    	je     80af <_ZN8Executor7executeEv+0x465f>
    572b:	8b 8c 24 80 00 00 00 	mov    0x80(%rsp),%ecx
    5732:	41 03 44 8e 20       	add    0x20(%r14,%rcx,4),%eax
    5737:	89 c1                	mov    %eax,%ecx
    5739:	e9 9d 29 00 00       	jmp    80db <_ZN8Executor7executeEv+0x468b>
    573e:	8b 54 0a 01          	mov    0x1(%rdx,%rcx,1),%edx
    5742:	41 8b 76 20          	mov    0x20(%r14),%esi
    5746:	4c 89 f7             	mov    %r14,%rdi
    5749:	e8 e2 d2 ff ff       	call   2a30 <_ZN3CPU5adc32Ejj>
    574e:	e9 27 0c 00 00       	jmp    637a <_ZN8Executor7executeEv+0x292a>
    5753:	8b 54 0a 01          	mov    0x1(%rdx,%rcx,1),%edx
    5757:	41 8b 76 20          	mov    0x20(%r14),%esi
    575b:	4c 89 f7             	mov    %r14,%rdi
    575e:	e8 2d d3 ff ff       	call   2a90 <_ZN3CPU5and32Ejj>
    5763:	e9 12 0c 00 00       	jmp    637a <_ZN8Executor7executeEv+0x292a>
    5768:	0f b6 b4 24 80 00 00 	movzbl 0x80(%rsp),%esi
    576f:	00 
    5770:	0f b6 94 24 b0 00 00 	movzbl 0xb0(%rsp),%edx
    5777:	00 
    5778:	4c 89 f7             	mov    %r14,%rdi
    577b:	e8 f0 d2 ff ff       	call   2a70 <_ZN3CPU4and8Ehh>
    5780:	88 84 24 80 00 00 00 	mov    %al,0x80(%rsp)
    5787:	8b 44 24 30          	mov    0x30(%rsp),%eax
    578b:	48 01 44 24 10       	add    %rax,0x10(%rsp)
    5790:	48 8b 44 24 58       	mov    0x58(%rsp),%rax
    5795:	c6 00 00             	movb   $0x0,(%rax)
    5798:	48 8b bc 24 a8 00 00 	mov    0xa8(%rsp),%rdi
    579f:	00 
    57a0:	48 85 ff             	test   %rdi,%rdi
    57a3:	74 17                	je     57bc <_ZN8Executor7executeEv+0x1d6c>
    57a5:	48 8b 84 24 b8 00 00 	mov    0xb8(%rsp),%rax
    57ac:	00 
    57ad:	48 85 c0             	test   %rax,%rax
    57b0:	74 0a                	je     57bc <_ZN8Executor7executeEv+0x1d6c>
    57b2:	0f b6 b4 24 b0 00 00 	movzbl 0xb0(%rsp),%esi
    57b9:	00 
    57ba:	ff d0                	call   *%rax
    57bc:	48 8b 84 24 90 00 00 	mov    0x90(%rsp),%rax
    57c3:	00 
    57c4:	48 85 c0             	test   %rax,%rax
    57c7:	74 0a                	je     57d3 <_ZN8Executor7executeEv+0x1d83>
    57c9:	0f b6 8c 24 98 00 00 	movzbl 0x98(%rsp),%ecx
    57d0:	00 
    57d1:	88 08                	mov    %cl,(%rax)
    57d3:	48 8b 7c 24 78       	mov    0x78(%rsp),%rdi
    57d8:	48 85 ff             	test   %rdi,%rdi
    57db:	0f 84 cf e2 ff ff    	je     3ab0 <_ZN8Executor7executeEv+0x60>
    57e1:	48 8b 84 24 88 00 00 	mov    0x88(%rsp),%rax
    57e8:	00 
    57e9:	48 85 c0             	test   %rax,%rax
    57ec:	0f 84 be e2 ff ff    	je     3ab0 <_ZN8Executor7executeEv+0x60>
    57f2:	0f b6 b4 24 80 00 00 	movzbl 0x80(%rsp),%esi
    57f9:	00 
    57fa:	ff d0                	call   *%rax
    57fc:	e9 af e2 ff ff       	jmp    3ab0 <_ZN8Executor7executeEv+0x60>
    5801:	0f b6 b4 24 80 00 00 	movzbl 0x80(%rsp),%esi
    5808:	00 
    5809:	0f b6 94 24 b0 00 00 	movzbl 0xb0(%rsp),%edx
    5810:	00 
    5811:	4c 89 f7             	mov    %r14,%rdi
    5814:	e8 07 da ff ff       	call   3220 <_ZN3CPU4xor8Ehh>
    5819:	88 84 24 80 00 00 00 	mov    %al,0x80(%rsp)
    5820:	8b 44 24 30          	mov    0x30(%rsp),%eax
    5824:	48 01 44 24 10       	add    %rax,0x10(%rsp)
    5829:	48 8b 44 24 58       	mov    0x58(%rsp),%rax
    582e:	c6 00 00             	movb   $0x0,(%rax)
    5831:	48 8b bc 24 a8 00 00 	mov    0xa8(%rsp),%rdi
    5838:	00 
    5839:	48 85 ff             	test   %rdi,%rdi
    583c:	74 17                	je     5855 <_ZN8Executor7executeEv+0x1e05>
    583e:	48 8b 84 24 b8 00 00 	mov    0xb8(%rsp),%rax
    5845:	00 
    5846:	48 85 c0             	test   %rax,%rax
    5849:	74 0a                	je     5855 <_ZN8Executor7executeEv+0x1e05>
    584b:	0f b6 b4 24 b0 00 00 	movzbl 0xb0(%rsp),%esi
    5852:	00 
    5853:	ff d0                	call   *%rax
    5855:	48 8b 84 24 90 00 00 	mov    0x90(%rsp),%rax
    585c:	00 
    585d:	48 85 c0             	test   %rax,%rax
    5860:	74 0a                	je     586c <_ZN8Executor7executeEv+0x1e1c>
    5862:	0f b6 8c 24 98 00 00 	movzbl 0x98(%rsp),%ecx
    5869:	00 
    586a:	88 08                	mov    %cl,(%rax)
    586c:	48 8b 7c 24 78       	mov    0x78(%rsp),%rdi
    5871:	48 85 ff             	test   %rdi,%rdi
    5874:	0f 84 36 e2 ff ff    	je     3ab0 <_ZN8Executor7executeEv+0x60>
    587a:	48 8b 84 24 88 00 00 	mov    0x88(%rsp),%rax
    5881:	00 
    5882:	48 85 c0             	test   %rax,%rax
    5885:	0f 84 25 e2 ff ff    	je     3ab0 <_ZN8Executor7executeEv+0x60>
    588b:	0f b6 b4 24 80 00 00 	movzbl 0x80(%rsp),%esi
    5892:	00 
    5893:	ff d0                	call   *%rax
    5895:	e9 16 e2 ff ff       	jmp    3ab0 <_ZN8Executor7executeEv+0x60>
    589a:	8b 74 0a 01          	mov    0x1(%rdx,%rcx,1),%esi
    589e:	4c 89 f7             	mov    %r14,%rdi
    58a1:	e8 4a d7 ff ff       	call   2ff0 <_ZN3CPU6push32Ej>
    58a6:	48 8b 44 24 10       	mov    0x10(%rsp),%rax
    58ab:	48 83 c0 05          	add    $0x5,%rax
    58af:	48 89 44 24 10       	mov    %rax,0x10(%rsp)
    58b4:	e9 f7 e1 ff ff       	jmp    3ab0 <_ZN8Executor7executeEv+0x60>
    58b9:	8b 54 0a 01          	mov    0x1(%rdx,%rcx,1),%edx
    58bd:	41 8b 76 20          	mov    0x20(%r14),%esi
    58c1:	4c 89 f7             	mov    %r14,%rdi
    58c4:	e8 a7 d2 ff ff       	call   2b70 <_ZN3CPU5cmp32Ejj>
    58c9:	e9 ac 0a 00 00       	jmp    637a <_ZN8Executor7executeEv+0x292a>
    58ce:	0f b6 94 24 80 00 00 	movzbl 0x80(%rsp),%edx
    58d5:	00 
    58d6:	4c 89 f7             	mov    %r14,%rdi
    58d9:	e8 22 d5 ff ff       	call   2e00 <_ZN3CPU3or8Ehh>
    58de:	8b 4c 24 30          	mov    0x30(%rsp),%ecx
    58e2:	48 01 4c 24 10       	add    %rcx,0x10(%rsp)
    58e7:	88 84 24 b0 00 00 00 	mov    %al,0xb0(%rsp)
    58ee:	48 8b 4c 24 58       	mov    0x58(%rsp),%rcx
    58f3:	c6 01 00             	movb   $0x0,(%rcx)
    58f6:	48 8b bc 24 a8 00 00 	mov    0xa8(%rsp),%rdi
    58fd:	00 
    58fe:	48 85 ff             	test   %rdi,%rdi
    5901:	74 12                	je     5915 <_ZN8Executor7executeEv+0x1ec5>
    5903:	48 8b 8c 24 b8 00 00 	mov    0xb8(%rsp),%rcx
    590a:	00 
    590b:	48 85 c9             	test   %rcx,%rcx
    590e:	74 05                	je     5915 <_ZN8Executor7executeEv+0x1ec5>
    5910:	0f b6 f0             	movzbl %al,%esi
    5913:	ff d1                	call   *%rcx
    5915:	48 8b 84 24 90 00 00 	mov    0x90(%rsp),%rax
    591c:	00 
    591d:	48 85 c0             	test   %rax,%rax
    5920:	74 0a                	je     592c <_ZN8Executor7executeEv+0x1edc>
    5922:	0f b6 8c 24 98 00 00 	movzbl 0x98(%rsp),%ecx
    5929:	00 
    592a:	88 08                	mov    %cl,(%rax)
    592c:	48 8b 7c 24 78       	mov    0x78(%rsp),%rdi
    5931:	48 85 ff             	test   %rdi,%rdi
    5934:	0f 84 76 e1 ff ff    	je     3ab0 <_ZN8Executor7executeEv+0x60>
    593a:	48 8b 84 24 88 00 00 	mov    0x88(%rsp),%rax
    5941:	00 
    5942:	48 85 c0             	test   %rax,%rax
    5945:	0f 84 65 e1 ff ff    	je     3ab0 <_ZN8Executor7executeEv+0x60>
    594b:	0f b6 b4 24 80 00 00 	movzbl 0x80(%rsp),%esi
    5952:	00 
    5953:	ff d0                	call   *%rax
    5955:	e9 56 e1 ff ff       	jmp    3ab0 <_ZN8Executor7executeEv+0x60>
    595a:	0f b6 b4 24 80 00 00 	movzbl 0x80(%rsp),%esi
    5961:	00 
    5962:	0f b6 94 24 b0 00 00 	movzbl 0xb0(%rsp),%edx
    5969:	00 
    596a:	4c 89 f7             	mov    %r14,%rdi
    596d:	e8 4e d8 ff ff       	call   31c0 <_ZN3CPU4sbb8Ehh>
    5972:	88 84 24 80 00 00 00 	mov    %al,0x80(%rsp)
    5979:	8b 44 24 30          	mov    0x30(%rsp),%eax
    597d:	48 01 44 24 10       	add    %rax,0x10(%rsp)
    5982:	48 8b 44 24 58       	mov    0x58(%rsp),%rax
    5987:	c6 00 00             	movb   $0x0,(%rax)
    598a:	48 8b bc 24 a8 00 00 	mov    0xa8(%rsp),%rdi
    5991:	00 
    5992:	48 85 ff             	test   %rdi,%rdi
    5995:	74 17                	je     59ae <_ZN8Executor7executeEv+0x1f5e>
    5997:	48 8b 84 24 b8 00 00 	mov    0xb8(%rsp),%rax
    599e:	00 
    599f:	48 85 c0             	test   %rax,%rax
    59a2:	74 0a                	je     59ae <_ZN8Executor7executeEv+0x1f5e>
    59a4:	0f b6 b4 24 b0 00 00 	movzbl 0xb0(%rsp),%esi
    59ab:	00 
    59ac:	ff d0                	call   *%rax
    59ae:	48 8b 84 24 90 00 00 	mov    0x90(%rsp),%rax
    59b5:	00 
    59b6:	48 85 c0             	test   %rax,%rax
    59b9:	74 0a                	je     59c5 <_ZN8Executor7executeEv+0x1f75>
    59bb:	0f b6 8c 24 98 00 00 	movzbl 0x98(%rsp),%ecx
    59c2:	00 
    59c3:	88 08                	mov    %cl,(%rax)
    59c5:	48 8b 7c 24 78       	mov    0x78(%rsp),%rdi
    59ca:	48 85 ff             	test   %rdi,%rdi
    59cd:	0f 84 dd e0 ff ff    	je     3ab0 <_ZN8Executor7executeEv+0x60>
    59d3:	48 8b 84 24 88 00 00 	mov    0x88(%rsp),%rax
    59da:	00 
    59db:	48 85 c0             	test   %rax,%rax
    59de:	0f 84 cc e0 ff ff    	je     3ab0 <_ZN8Executor7executeEv+0x60>
    59e4:	0f b6 b4 24 80 00 00 	movzbl 0x80(%rsp),%esi
    59eb:	00 
    59ec:	ff d0                	call   *%rax
    59ee:	e9 bd e0 ff ff       	jmp    3ab0 <_ZN8Executor7executeEv+0x60>
    59f3:	8b 54 0a 01          	mov    0x1(%rdx,%rcx,1),%edx
    59f7:	41 8b 76 20          	mov    0x20(%r14),%esi
    59fb:	4c 89 f7             	mov    %r14,%rdi
    59fe:	e8 3d d8 ff ff       	call   3240 <_ZN3CPU5xor32Ejj>
    5a03:	e9 72 09 00 00       	jmp    637a <_ZN8Executor7executeEv+0x292a>
    5a08:	0f b6 b4 24 80 00 00 	movzbl 0x80(%rsp),%esi
    5a0f:	00 
    5a10:	0f b6 94 24 b0 00 00 	movzbl 0xb0(%rsp),%edx
    5a17:	00 
    5a18:	4c 89 f7             	mov    %r14,%rdi
    5a1b:	e8 20 d0 ff ff       	call   2a40 <_ZN3CPU4add8Ehh>
    5a20:	88 84 24 80 00 00 00 	mov    %al,0x80(%rsp)
    5a27:	8b 44 24 30          	mov    0x30(%rsp),%eax
    5a2b:	48 01 44 24 10       	add    %rax,0x10(%rsp)
    5a30:	48 8b 44 24 58       	mov    0x58(%rsp),%rax
    5a35:	c6 00 00             	movb   $0x0,(%rax)
    5a38:	48 8b bc 24 a8 00 00 	mov    0xa8(%rsp),%rdi
    5a3f:	00 
    5a40:	48 85 ff             	test   %rdi,%rdi
    5a43:	74 17                	je     5a5c <_ZN8Executor7executeEv+0x200c>
    5a45:	48 8b 84 24 b8 00 00 	mov    0xb8(%rsp),%rax
    5a4c:	00 
    5a4d:	48 85 c0             	test   %rax,%rax
    5a50:	74 0a                	je     5a5c <_ZN8Executor7executeEv+0x200c>
    5a52:	0f b6 b4 24 b0 00 00 	movzbl 0xb0(%rsp),%esi
    5a59:	00 
    5a5a:	ff d0                	call   *%rax
    5a5c:	48 8b 84 24 90 00 00 	mov    0x90(%rsp),%rax
    5a63:	00 
    5a64:	48 85 c0             	test   %rax,%rax
    5a67:	74 0a                	je     5a73 <_ZN8Executor7executeEv+0x2023>
    5a69:	0f b6 8c 24 98 00 00 	movzbl 0x98(%rsp),%ecx
    5a70:	00 
    5a71:	88 08                	mov    %cl,(%rax)
    5a73:	48 8b 7c 24 78       	mov    0x78(%rsp),%rdi
    5a78:	48 85 ff             	test   %rdi,%rdi
    5a7b:	0f 84 2f e0 ff ff    	je     3ab0 <_ZN8Executor7executeEv+0x60>
    5a81:	48 8b 84 24 88 00 00 	mov    0x88(%rsp),%rax
    5a88:	00 
    5a89:	48 85 c0             	test   %rax,%rax
    5a8c:	0f 84 1e e0 ff ff    	je     3ab0 <_ZN8Executor7executeEv+0x60>
    5a92:	0f b6 b4 24 80 00 00 	movzbl 0x80(%rsp),%esi
    5a99:	00 
    5a9a:	ff d0                	call   *%rax
    5a9c:	e9 0f e0 ff ff       	jmp    3ab0 <_ZN8Executor7executeEv+0x60>
    5aa1:	e8 8a cc 00 00       	call   12730 <_Z11null_getterj>
    5aa6:	89 c5                	mov    %eax,%ebp
    5aa8:	4c 89 ef             	mov    %r13,%rdi
    5aab:	89 c6                	mov    %eax,%esi
    5aad:	e8 6e cc 00 00       	call   12720 <_Z15grh_null_setterPjj>
    5ab2:	44 0f b6 bc 24 90 00 	movzbl 0x90(%rsp),%r15d
    5ab9:	00 00 
    5abb:	45 84 ff             	test   %r15b,%r15b
    5abe:	44 88 7c 24 20       	mov    %r15b,0x20(%rsp)
    5ac3:	0f 84 33 1e 00 00    	je     78fc <_ZN8Executor7executeEv+0x3eac>
    5ac9:	8b 44 24 7c          	mov    0x7c(%rsp),%eax
    5acd:	80 bc 24 91 00 00 00 	cmpb   $0x0,0x91(%rsp)
    5ad4:	00 
    5ad5:	0f 84 63 26 00 00    	je     813e <_ZN8Executor7executeEv+0x46ee>
    5adb:	8b 8c 24 80 00 00 00 	mov    0x80(%rsp),%ecx
    5ae2:	41 03 44 8e 20       	add    0x20(%r14,%rcx,4),%eax
    5ae7:	89 c1                	mov    %eax,%ecx
    5ae9:	e9 7c 26 00 00       	jmp    816a <_ZN8Executor7executeEv+0x471a>
    5aee:	e8 3d cc 00 00       	call   12730 <_Z11null_getterj>
    5af3:	89 c5                	mov    %eax,%ebp
    5af5:	4c 89 ef             	mov    %r13,%rdi
    5af8:	89 c6                	mov    %eax,%esi
    5afa:	e8 21 cc 00 00       	call   12720 <_Z15grh_null_setterPjj>
    5aff:	44 0f b6 bc 24 90 00 	movzbl 0x90(%rsp),%r15d
    5b06:	00 00 
    5b08:	45 84 ff             	test   %r15b,%r15b
    5b0b:	44 88 7c 24 20       	mov    %r15b,0x20(%rsp)
    5b10:	0f 84 32 1e 00 00    	je     7948 <_ZN8Executor7executeEv+0x3ef8>
    5b16:	8b 44 24 7c          	mov    0x7c(%rsp),%eax
    5b1a:	80 bc 24 91 00 00 00 	cmpb   $0x0,0x91(%rsp)
    5b21:	00 
    5b22:	0f 84 a6 26 00 00    	je     81ce <_ZN8Executor7executeEv+0x477e>
    5b28:	8b 8c 24 80 00 00 00 	mov    0x80(%rsp),%ecx
    5b2f:	41 03 44 8e 20       	add    0x20(%r14,%rcx,4),%eax
    5b34:	89 c1                	mov    %eax,%ecx
    5b36:	e9 bf 26 00 00       	jmp    81fa <_ZN8Executor7executeEv+0x47aa>
    5b3b:	e8 f0 cb 00 00       	call   12730 <_Z11null_getterj>
    5b40:	89 c5                	mov    %eax,%ebp
    5b42:	4c 89 ef             	mov    %r13,%rdi
    5b45:	89 c6                	mov    %eax,%esi
    5b47:	e8 d4 cb 00 00       	call   12720 <_Z15grh_null_setterPjj>
    5b4c:	44 0f b6 bc 24 90 00 	movzbl 0x90(%rsp),%r15d
    5b53:	00 00 
    5b55:	45 84 ff             	test   %r15b,%r15b
    5b58:	44 88 7c 24 20       	mov    %r15b,0x20(%rsp)
    5b5d:	0f 84 31 1e 00 00    	je     7994 <_ZN8Executor7executeEv+0x3f44>
    5b63:	8b 44 24 7c          	mov    0x7c(%rsp),%eax
    5b67:	80 bc 24 91 00 00 00 	cmpb   $0x0,0x91(%rsp)
    5b6e:	00 
    5b6f:	0f 84 e9 26 00 00    	je     825e <_ZN8Executor7executeEv+0x480e>
    5b75:	8b 8c 24 80 00 00 00 	mov    0x80(%rsp),%ecx
    5b7c:	41 03 44 8e 20       	add    0x20(%r14,%rcx,4),%eax
    5b81:	89 c1                	mov    %eax,%ecx
    5b83:	e9 02 27 00 00       	jmp    828a <_ZN8Executor7executeEv+0x483a>
    5b88:	0f b6 94 24 80 00 00 	movzbl 0x80(%rsp),%edx
    5b8f:	00 
    5b90:	4c 89 f7             	mov    %r14,%rdi
    5b93:	e8 a8 ce ff ff       	call   2a40 <_ZN3CPU4add8Ehh>
    5b98:	8b 4c 24 30          	mov    0x30(%rsp),%ecx
    5b9c:	48 01 4c 24 10       	add    %rcx,0x10(%rsp)
    5ba1:	88 84 24 b0 00 00 00 	mov    %al,0xb0(%rsp)
    5ba8:	48 8b 4c 24 58       	mov    0x58(%rsp),%rcx
    5bad:	c6 01 00             	movb   $0x0,(%rcx)
    5bb0:	48 8b bc 24 a8 00 00 	mov    0xa8(%rsp),%rdi
    5bb7:	00 
    5bb8:	48 85 ff             	test   %rdi,%rdi
    5bbb:	74 12                	je     5bcf <_ZN8Executor7executeEv+0x217f>
    5bbd:	48 8b 8c 24 b8 00 00 	mov    0xb8(%rsp),%rcx
    5bc4:	00 
    5bc5:	48 85 c9             	test   %rcx,%rcx
    5bc8:	74 05                	je     5bcf <_ZN8Executor7executeEv+0x217f>
    5bca:	0f b6 f0             	movzbl %al,%esi
    5bcd:	ff d1                	call   *%rcx
    5bcf:	48 8b 84 24 90 00 00 	mov    0x90(%rsp),%rax
    5bd6:	00 
    5bd7:	48 85 c0             	test   %rax,%rax
    5bda:	74 0a                	je     5be6 <_ZN8Executor7executeEv+0x2196>
    5bdc:	0f b6 8c 24 98 00 00 	movzbl 0x98(%rsp),%ecx
    5be3:	00 
    5be4:	88 08                	mov    %cl,(%rax)
    5be6:	48 8b 7c 24 78       	mov    0x78(%rsp),%rdi
    5beb:	48 85 ff             	test   %rdi,%rdi
    5bee:	0f 84 bc de ff ff    	je     3ab0 <_ZN8Executor7executeEv+0x60>
    5bf4:	48 8b 84 24 88 00 00 	mov    0x88(%rsp),%rax
    5bfb:	00 
    5bfc:	48 85 c0             	test   %rax,%rax
    5bff:	0f 84 ab de ff ff    	je     3ab0 <_ZN8Executor7executeEv+0x60>
    5c05:	0f b6 b4 24 80 00 00 	movzbl 0x80(%rsp),%esi
    5c0c:	00 
    5c0d:	ff d0                	call   *%rax
    5c0f:	e9 9c de ff ff       	jmp    3ab0 <_ZN8Executor7executeEv+0x60>
    5c14:	0f b6 94 24 80 00 00 	movzbl 0x80(%rsp),%edx
    5c1b:	00 
    5c1c:	4c 89 f7             	mov    %r14,%rdi
    5c1f:	e8 9c d5 ff ff       	call   31c0 <_ZN3CPU4sbb8Ehh>
    5c24:	8b 4c 24 30          	mov    0x30(%rsp),%ecx
    5c28:	48 01 4c 24 10       	add    %rcx,0x10(%rsp)
    5c2d:	88 84 24 b0 00 00 00 	mov    %al,0xb0(%rsp)
    5c34:	48 8b 4c 24 58       	mov    0x58(%rsp),%rcx
    5c39:	c6 01 00             	movb   $0x0,(%rcx)
    5c3c:	48 8b bc 24 a8 00 00 	mov    0xa8(%rsp),%rdi
    5c43:	00 
    5c44:	48 85 ff             	test   %rdi,%rdi
    5c47:	74 12                	je     5c5b <_ZN8Executor7executeEv+0x220b>
    5c49:	48 8b 8c 24 b8 00 00 	mov    0xb8(%rsp),%rcx
    5c50:	00 
    5c51:	48 85 c9             	test   %rcx,%rcx
    5c54:	74 05                	je     5c5b <_ZN8Executor7executeEv+0x220b>
    5c56:	0f b6 f0             	movzbl %al,%esi
    5c59:	ff d1                	call   *%rcx
    5c5b:	48 8b 84 24 90 00 00 	mov    0x90(%rsp),%rax
    5c62:	00 
    5c63:	48 85 c0             	test   %rax,%rax
    5c66:	74 0a                	je     5c72 <_ZN8Executor7executeEv+0x2222>
    5c68:	0f b6 8c 24 98 00 00 	movzbl 0x98(%rsp),%ecx
    5c6f:	00 
    5c70:	88 08                	mov    %cl,(%rax)
    5c72:	48 8b 7c 24 78       	mov    0x78(%rsp),%rdi
    5c77:	48 85 ff             	test   %rdi,%rdi
    5c7a:	0f 84 30 de ff ff    	je     3ab0 <_ZN8Executor7executeEv+0x60>
    5c80:	48 8b 84 24 88 00 00 	mov    0x88(%rsp),%rax
    5c87:	00 
    5c88:	48 85 c0             	test   %rax,%rax
    5c8b:	0f 84 1f de ff ff    	je     3ab0 <_ZN8Executor7executeEv+0x60>
    5c91:	0f b6 b4 24 80 00 00 	movzbl 0x80(%rsp),%esi
    5c98:	00 
    5c99:	ff d0                	call   *%rax
    5c9b:	e9 10 de ff ff       	jmp    3ab0 <_ZN8Executor7executeEv+0x60>
    5ca0:	4c 89 f7             	mov    %r14,%rdi
    5ca3:	e8 28 d4 ff ff       	call   30d0 <_ZN3CPU6pushadEv>
    5ca8:	48 83 44 24 10 01    	addq   $0x1,0x10(%rsp)
    5cae:	e9 fd dd ff ff       	jmp    3ab0 <_ZN8Executor7executeEv+0x60>
    5cb3:	4c 89 f7             	mov    %r14,%rdi
    5cb6:	e8 f5 ce ff ff       	call   2bb0 <_ZN3CPU4cwdeEv>
    5cbb:	48 83 44 24 10 01    	addq   $0x1,0x10(%rsp)
    5cc1:	e9 ea dd ff ff       	jmp    3ab0 <_ZN8Executor7executeEv+0x60>
    5cc6:	e8 65 ca 00 00       	call   12730 <_Z11null_getterj>
    5ccb:	4c 89 ff             	mov    %r15,%rdi
    5cce:	89 44 24 18          	mov    %eax,0x18(%rsp)
    5cd2:	89 c6                	mov    %eax,%esi
    5cd4:	e8 47 ca 00 00       	call   12720 <_Z15grh_null_setterPjj>
    5cd9:	44 0f b6 ac 24 90 00 	movzbl 0x90(%rsp),%r13d
    5ce0:	00 00 
    5ce2:	45 84 ed             	test   %r13b,%r13b
    5ce5:	44 88 ac 24 00 02 00 	mov    %r13b,0x200(%rsp)
    5cec:	00 
    5ced:	0f 84 ed 1c 00 00    	je     79e0 <_ZN8Executor7executeEv+0x3f90>
    5cf3:	8b 44 24 7c          	mov    0x7c(%rsp),%eax
    5cf7:	80 bc 24 91 00 00 00 	cmpb   $0x0,0x91(%rsp)
    5cfe:	00 
    5cff:	0f 84 e9 25 00 00    	je     82ee <_ZN8Executor7executeEv+0x489e>
    5d05:	8b 8c 24 80 00 00 00 	mov    0x80(%rsp),%ecx
    5d0c:	41 03 44 8e 20       	add    0x20(%r14,%rcx,4),%eax
    5d11:	89 c1                	mov    %eax,%ecx
    5d13:	e9 02 26 00 00       	jmp    831a <_ZN8Executor7executeEv+0x48ca>
    5d18:	0f b6 b4 24 80 00 00 	movzbl 0x80(%rsp),%esi
    5d1f:	00 
    5d20:	0f b6 94 24 b0 00 00 	movzbl 0xb0(%rsp),%edx
    5d27:	00 
    5d28:	4c 89 f7             	mov    %r14,%rdi
    5d2b:	e8 d0 d0 ff ff       	call   2e00 <_ZN3CPU3or8Ehh>
    5d30:	88 84 24 80 00 00 00 	mov    %al,0x80(%rsp)
    5d37:	8b 44 24 30          	mov    0x30(%rsp),%eax
    5d3b:	48 01 44 24 10       	add    %rax,0x10(%rsp)
    5d40:	48 8b 44 24 58       	mov    0x58(%rsp),%rax
    5d45:	c6 00 00             	movb   $0x0,(%rax)
    5d48:	48 8b bc 24 a8 00 00 	mov    0xa8(%rsp),%rdi
    5d4f:	00 
    5d50:	48 85 ff             	test   %rdi,%rdi
    5d53:	74 17                	je     5d6c <_ZN8Executor7executeEv+0x231c>
    5d55:	48 8b 84 24 b8 00 00 	mov    0xb8(%rsp),%rax
    5d5c:	00 
    5d5d:	48 85 c0             	test   %rax,%rax
    5d60:	74 0a                	je     5d6c <_ZN8Executor7executeEv+0x231c>
    5d62:	0f b6 b4 24 b0 00 00 	movzbl 0xb0(%rsp),%esi
    5d69:	00 
    5d6a:	ff d0                	call   *%rax
    5d6c:	48 8b 84 24 90 00 00 	mov    0x90(%rsp),%rax
    5d73:	00 
    5d74:	48 85 c0             	test   %rax,%rax
    5d77:	74 0a                	je     5d83 <_ZN8Executor7executeEv+0x2333>
    5d79:	0f b6 8c 24 98 00 00 	movzbl 0x98(%rsp),%ecx
    5d80:	00 
    5d81:	88 08                	mov    %cl,(%rax)
    5d83:	48 8b 7c 24 78       	mov    0x78(%rsp),%rdi
    5d88:	48 85 ff             	test   %rdi,%rdi
    5d8b:	0f 84 1f dd ff ff    	je     3ab0 <_ZN8Executor7executeEv+0x60>
    5d91:	48 8b 84 24 88 00 00 	mov    0x88(%rsp),%rax
    5d98:	00 
    5d99:	48 85 c0             	test   %rax,%rax
    5d9c:	0f 84 0e dd ff ff    	je     3ab0 <_ZN8Executor7executeEv+0x60>
    5da2:	0f b6 b4 24 80 00 00 	movzbl 0x80(%rsp),%esi
    5da9:	00 
    5daa:	ff d0                	call   *%rax
    5dac:	e9 ff dc ff ff       	jmp    3ab0 <_ZN8Executor7executeEv+0x60>
    5db1:	e8 7a c9 00 00       	call   12730 <_Z11null_getterj>
    5db6:	89 c5                	mov    %eax,%ebp
    5db8:	4c 89 ef             	mov    %r13,%rdi
    5dbb:	89 c6                	mov    %eax,%esi
    5dbd:	e8 5e c9 00 00       	call   12720 <_Z15grh_null_setterPjj>
    5dc2:	44 0f b6 bc 24 90 00 	movzbl 0x90(%rsp),%r15d
    5dc9:	00 00 
    5dcb:	45 84 ff             	test   %r15b,%r15b
    5dce:	44 88 7c 24 20       	mov    %r15b,0x20(%rsp)
    5dd3:	0f 84 58 1c 00 00    	je     7a31 <_ZN8Executor7executeEv+0x3fe1>
    5dd9:	8b 44 24 7c          	mov    0x7c(%rsp),%eax
    5ddd:	80 bc 24 91 00 00 00 	cmpb   $0x0,0x91(%rsp)
    5de4:	00 
    5de5:	0f 84 99 25 00 00    	je     8384 <_ZN8Executor7executeEv+0x4934>
    5deb:	8b 8c 24 80 00 00 00 	mov    0x80(%rsp),%ecx
    5df2:	41 03 44 8e 20       	add    0x20(%r14,%rcx,4),%eax
    5df7:	89 c1                	mov    %eax,%ecx
    5df9:	e9 b2 25 00 00       	jmp    83b0 <_ZN8Executor7executeEv+0x4960>
    5dfe:	4c 89 f7             	mov    %r14,%rdi
    5e01:	e8 fa cc ff ff       	call   2b00 <_ZN3CPU3cdqEv>
    5e06:	48 83 44 24 10 01    	addq   $0x1,0x10(%rsp)
    5e0c:	e9 9f dc ff ff       	jmp    3ab0 <_ZN8Executor7executeEv+0x60>
    5e11:	80 bc 24 95 00 00 00 	cmpb   $0x0,0x95(%rsp)
    5e18:	00 
    5e19:	8b 84 24 98 00 00 00 	mov    0x98(%rsp),%eax
    5e20:	49 8d 5c 86 20       	lea    0x20(%r14,%rax,4),%rbx
    5e25:	41 8b 7c 86 20       	mov    0x20(%r14,%rax,4),%edi
    5e2a:	48 89 5c 24 28       	mov    %rbx,0x28(%rsp)
    5e2f:	0f 84 d5 18 00 00    	je     770a <_ZN8Executor7executeEv+0x3cba>
    5e35:	e8 56 c8 00 00       	call   12690 <_Z22get_low_word_high_bytej>
    5e3a:	89 c5                	mov    %eax,%ebp
    5e3c:	0f b6 f0             	movzbl %al,%esi
    5e3f:	48 89 df             	mov    %rbx,%rdi
    5e42:	e8 c9 c8 00 00       	call   12710 <_Z26grh_set_low_word_high_bytePjh>
    5e47:	4c 8d 2d c2 c8 00 00 	lea    0xc8c2(%rip),%r13        # 12710 <_Z26grh_set_low_word_high_bytePjh>
    5e4e:	e9 d0 18 00 00       	jmp    7723 <_ZN8Executor7executeEv+0x3cd3>
    5e53:	e8 d8 c8 00 00       	call   12730 <_Z11null_getterj>
    5e58:	4c 89 ff             	mov    %r15,%rdi
    5e5b:	89 44 24 18          	mov    %eax,0x18(%rsp)
    5e5f:	89 c6                	mov    %eax,%esi
    5e61:	e8 ba c8 00 00       	call   12720 <_Z15grh_null_setterPjj>
    5e66:	44 0f b6 ac 24 90 00 	movzbl 0x90(%rsp),%r13d
    5e6d:	00 00 
    5e6f:	45 84 ed             	test   %r13b,%r13b
    5e72:	44 88 ac 24 00 02 00 	mov    %r13b,0x200(%rsp)
    5e79:	00 
    5e7a:	0f 84 fd 1b 00 00    	je     7a7d <_ZN8Executor7executeEv+0x402d>
    5e80:	8b 44 24 7c          	mov    0x7c(%rsp),%eax
    5e84:	80 bc 24 91 00 00 00 	cmpb   $0x0,0x91(%rsp)
    5e8b:	00 
    5e8c:	0f 84 82 25 00 00    	je     8414 <_ZN8Executor7executeEv+0x49c4>
    5e92:	8b 8c 24 80 00 00 00 	mov    0x80(%rsp),%ecx
    5e99:	41 03 44 8e 20       	add    0x20(%r14,%rcx,4),%eax
    5e9e:	89 c1                	mov    %eax,%ecx
    5ea0:	e9 9b 25 00 00       	jmp    8440 <_ZN8Executor7executeEv+0x49f0>
    5ea5:	8b 54 0a 01          	mov    0x1(%rdx,%rcx,1),%edx
    5ea9:	41 8b 76 20          	mov    0x20(%r14),%esi
    5ead:	4c 89 f7             	mov    %r14,%rdi
    5eb0:	e8 2b d3 ff ff       	call   31e0 <_ZN3CPU5sbb32Ejj>
    5eb5:	e9 c0 04 00 00       	jmp    637a <_ZN8Executor7executeEv+0x292a>
    5eba:	e8 71 c8 00 00       	call   12730 <_Z11null_getterj>
    5ebf:	41 89 c7             	mov    %eax,%r15d
    5ec2:	4c 89 ef             	mov    %r13,%rdi
    5ec5:	89 c6                	mov    %eax,%esi
    5ec7:	e8 54 c8 00 00       	call   12720 <_Z15grh_null_setterPjj>
    5ecc:	0f b6 ac 24 90 00 00 	movzbl 0x90(%rsp),%ebp
    5ed3:	00 
    5ed4:	40 84 ed             	test   %bpl,%bpl
    5ed7:	40 88 6c 24 18       	mov    %bpl,0x18(%rsp)
    5edc:	0f 84 ec 1b 00 00    	je     7ace <_ZN8Executor7executeEv+0x407e>
    5ee2:	8b 44 24 7c          	mov    0x7c(%rsp),%eax
    5ee6:	80 bc 24 91 00 00 00 	cmpb   $0x0,0x91(%rsp)
    5eed:	00 
    5eee:	0f 84 b6 25 00 00    	je     84aa <_ZN8Executor7executeEv+0x4a5a>
    5ef4:	8b 8c 24 80 00 00 00 	mov    0x80(%rsp),%ecx
    5efb:	41 03 44 8e 20       	add    0x20(%r14,%rcx,4),%eax
    5f00:	89 c1                	mov    %eax,%ecx
    5f02:	e9 cf 25 00 00       	jmp    84d6 <_ZN8Executor7executeEv+0x4a86>
    5f07:	e8 24 c8 00 00       	call   12730 <_Z11null_getterj>
    5f0c:	4c 89 ff             	mov    %r15,%rdi
    5f0f:	89 44 24 18          	mov    %eax,0x18(%rsp)
    5f13:	89 c6                	mov    %eax,%esi
    5f15:	e8 06 c8 00 00       	call   12720 <_Z15grh_null_setterPjj>
    5f1a:	44 0f b6 ac 24 90 00 	movzbl 0x90(%rsp),%r13d
    5f21:	00 00 
    5f23:	45 84 ed             	test   %r13b,%r13b
    5f26:	44 88 ac 24 00 02 00 	mov    %r13b,0x200(%rsp)
    5f2d:	00 
    5f2e:	0f 84 e6 1b 00 00    	je     7b1a <_ZN8Executor7executeEv+0x40ca>
    5f34:	8b 44 24 7c          	mov    0x7c(%rsp),%eax
    5f38:	80 bc 24 91 00 00 00 	cmpb   $0x0,0x91(%rsp)
    5f3f:	00 
    5f40:	0f 84 f3 25 00 00    	je     8539 <_ZN8Executor7executeEv+0x4ae9>
    5f46:	8b 8c 24 80 00 00 00 	mov    0x80(%rsp),%ecx
    5f4d:	41 03 44 8e 20       	add    0x20(%r14,%rcx,4),%eax
    5f52:	89 c1                	mov    %eax,%ecx
    5f54:	e9 0c 26 00 00       	jmp    8565 <_ZN8Executor7executeEv+0x4b15>
    5f59:	e8 d2 c7 00 00       	call   12730 <_Z11null_getterj>
    5f5e:	89 c5                	mov    %eax,%ebp
    5f60:	4c 89 ef             	mov    %r13,%rdi
    5f63:	89 c6                	mov    %eax,%esi
    5f65:	e8 b6 c7 00 00       	call   12720 <_Z15grh_null_setterPjj>
    5f6a:	44 0f b6 bc 24 90 00 	movzbl 0x90(%rsp),%r15d
    5f71:	00 00 
    5f73:	45 84 ff             	test   %r15b,%r15b
    5f76:	44 88 7c 24 20       	mov    %r15b,0x20(%rsp)
    5f7b:	0f 84 ea 1b 00 00    	je     7b6b <_ZN8Executor7executeEv+0x411b>
    5f81:	8b 44 24 7c          	mov    0x7c(%rsp),%eax
    5f85:	80 bc 24 91 00 00 00 	cmpb   $0x0,0x91(%rsp)
    5f8c:	00 
    5f8d:	0f 84 3c 26 00 00    	je     85cf <_ZN8Executor7executeEv+0x4b7f>
    5f93:	8b 8c 24 80 00 00 00 	mov    0x80(%rsp),%ecx
    5f9a:	41 03 44 8e 20       	add    0x20(%r14,%rcx,4),%eax
    5f9f:	89 c1                	mov    %eax,%ecx
    5fa1:	e9 55 26 00 00       	jmp    85fb <_ZN8Executor7executeEv+0x4bab>
    5fa6:	e8 85 c7 00 00       	call   12730 <_Z11null_getterj>
    5fab:	4c 89 ef             	mov    %r13,%rdi
    5fae:	89 44 24 18          	mov    %eax,0x18(%rsp)
    5fb2:	89 c6                	mov    %eax,%esi
    5fb4:	e8 67 c7 00 00       	call   12720 <_Z15grh_null_setterPjj>
    5fb9:	0f b6 ac 24 90 00 00 	movzbl 0x90(%rsp),%ebp
    5fc0:	00 
    5fc1:	40 84 ed             	test   %bpl,%bpl
    5fc4:	40 88 6c 24 20       	mov    %bpl,0x20(%rsp)
    5fc9:	0f 84 e8 1b 00 00    	je     7bb7 <_ZN8Executor7executeEv+0x4167>
    5fcf:	8b 44 24 7c          	mov    0x7c(%rsp),%eax
    5fd3:	80 bc 24 91 00 00 00 	cmpb   $0x0,0x91(%rsp)
    5fda:	00 
    5fdb:	0f 84 87 26 00 00    	je     8668 <_ZN8Executor7executeEv+0x4c18>
    5fe1:	8b 8c 24 80 00 00 00 	mov    0x80(%rsp),%ecx
    5fe8:	41 03 44 8e 20       	add    0x20(%r14,%rcx,4),%eax
    5fed:	89 c1                	mov    %eax,%ecx
    5fef:	e9 a0 26 00 00       	jmp    8694 <_ZN8Executor7executeEv+0x4c44>
    5ff4:	0f b6 94 24 80 00 00 	movzbl 0x80(%rsp),%edx
    5ffb:	00 
    5ffc:	4c 89 f7             	mov    %r14,%rdi
    5fff:	e8 4c cb ff ff       	call   2b50 <_ZN3CPU4cmp8Ehh>
    6004:	8b 4c 24 30          	mov    0x30(%rsp),%ecx
    6008:	48 01 4c 24 10       	add    %rcx,0x10(%rsp)
    600d:	88 84 24 b0 00 00 00 	mov    %al,0xb0(%rsp)
    6014:	48 8b 4c 24 58       	mov    0x58(%rsp),%rcx
    6019:	c6 01 00             	movb   $0x0,(%rcx)
    601c:	48 8b bc 24 a8 00 00 	mov    0xa8(%rsp),%rdi
    6023:	00 
    6024:	48 85 ff             	test   %rdi,%rdi
    6027:	74 12                	je     603b <_ZN8Executor7executeEv+0x25eb>
    6029:	48 8b 8c 24 b8 00 00 	mov    0xb8(%rsp),%rcx
    6030:	00 
    6031:	48 85 c9             	test   %rcx,%rcx
    6034:	74 05                	je     603b <_ZN8Executor7executeEv+0x25eb>
    6036:	0f b6 f0             	movzbl %al,%esi
    6039:	ff d1                	call   *%rcx
    603b:	48 8b 84 24 90 00 00 	mov    0x90(%rsp),%rax
    6042:	00 
    6043:	48 85 c0             	test   %rax,%rax
    6046:	74 0a                	je     6052 <_ZN8Executor7executeEv+0x2602>
    6048:	0f b6 8c 24 98 00 00 	movzbl 0x98(%rsp),%ecx
    604f:	00 
    6050:	88 08                	mov    %cl,(%rax)
    6052:	48 8b 7c 24 78       	mov    0x78(%rsp),%rdi
    6057:	48 85 ff             	test   %rdi,%rdi
    605a:	0f 84 50 da ff ff    	je     3ab0 <_ZN8Executor7executeEv+0x60>
    6060:	48 8b 84 24 88 00 00 	mov    0x88(%rsp),%rax
    6067:	00 
    6068:	48 85 c0             	test   %rax,%rax
    606b:	0f 84 3f da ff ff    	je     3ab0 <_ZN8Executor7executeEv+0x60>
    6071:	0f b6 b4 24 80 00 00 	movzbl 0x80(%rsp),%esi
    6078:	00 
    6079:	ff d0                	call   *%rax
    607b:	e9 30 da ff ff       	jmp    3ab0 <_ZN8Executor7executeEv+0x60>
    6080:	0f b6 b4 24 80 00 00 	movzbl 0x80(%rsp),%esi
    6087:	00 
    6088:	0f b6 94 24 b0 00 00 	movzbl 0xb0(%rsp),%edx
    608f:	00 
    6090:	4c 89 f7             	mov    %r14,%rdi
    6093:	e8 78 c9 ff ff       	call   2a10 <_ZN3CPU4adc8Ehh>
    6098:	88 84 24 80 00 00 00 	mov    %al,0x80(%rsp)
    609f:	8b 44 24 30          	mov    0x30(%rsp),%eax
    60a3:	48 01 44 24 10       	add    %rax,0x10(%rsp)
    60a8:	48 8b 44 24 58       	mov    0x58(%rsp),%rax
    60ad:	c6 00 00             	movb   $0x0,(%rax)
    60b0:	48 8b bc 24 a8 00 00 	mov    0xa8(%rsp),%rdi
    60b7:	00 
    60b8:	48 85 ff             	test   %rdi,%rdi
    60bb:	74 17                	je     60d4 <_ZN8Executor7executeEv+0x2684>
    60bd:	48 8b 84 24 b8 00 00 	mov    0xb8(%rsp),%rax
    60c4:	00 
    60c5:	48 85 c0             	test   %rax,%rax
    60c8:	74 0a                	je     60d4 <_ZN8Executor7executeEv+0x2684>
    60ca:	0f b6 b4 24 b0 00 00 	movzbl 0xb0(%rsp),%esi
    60d1:	00 
    60d2:	ff d0                	call   *%rax
    60d4:	48 8b 84 24 90 00 00 	mov    0x90(%rsp),%rax
    60db:	00 
    60dc:	48 85 c0             	test   %rax,%rax
    60df:	74 0a                	je     60eb <_ZN8Executor7executeEv+0x269b>
    60e1:	0f b6 8c 24 98 00 00 	movzbl 0x98(%rsp),%ecx
    60e8:	00 
    60e9:	88 08                	mov    %cl,(%rax)
    60eb:	48 8b 7c 24 78       	mov    0x78(%rsp),%rdi
    60f0:	48 85 ff             	test   %rdi,%rdi
    60f3:	0f 84 b7 d9 ff ff    	je     3ab0 <_ZN8Executor7executeEv+0x60>
    60f9:	48 8b 84 24 88 00 00 	mov    0x88(%rsp),%rax
    6100:	00 
    6101:	48 85 c0             	test   %rax,%rax
    6104:	0f 84 a6 d9 ff ff    	je     3ab0 <_ZN8Executor7executeEv+0x60>
    610a:	0f b6 b4 24 80 00 00 	movzbl 0x80(%rsp),%esi
    6111:	00 
    6112:	ff d0                	call   *%rax
    6114:	e9 97 d9 ff ff       	jmp    3ab0 <_ZN8Executor7executeEv+0x60>
    6119:	e8 12 c6 00 00       	call   12730 <_Z11null_getterj>
    611e:	4c 89 ff             	mov    %r15,%rdi
    6121:	89 44 24 18          	mov    %eax,0x18(%rsp)
    6125:	89 c6                	mov    %eax,%esi
    6127:	e8 f4 c5 00 00       	call   12720 <_Z15grh_null_setterPjj>
    612c:	44 0f b6 ac 24 90 00 	movzbl 0x90(%rsp),%r13d
    6133:	00 00 
    6135:	45 84 ed             	test   %r13b,%r13b
    6138:	44 88 ac 24 00 02 00 	mov    %r13b,0x200(%rsp)
    613f:	00 
    6140:	0f 84 c4 1a 00 00    	je     7c0a <_ZN8Executor7executeEv+0x41ba>
    6146:	8b 44 24 7c          	mov    0x7c(%rsp),%eax
    614a:	80 bc 24 91 00 00 00 	cmpb   $0x0,0x91(%rsp)
    6151:	00 
    6152:	0f 84 a8 25 00 00    	je     8700 <_ZN8Executor7executeEv+0x4cb0>
    6158:	8b 8c 24 80 00 00 00 	mov    0x80(%rsp),%ecx
    615f:	41 03 44 8e 20       	add    0x20(%r14,%rcx,4),%eax
    6164:	89 c1                	mov    %eax,%ecx
    6166:	e9 c1 25 00 00       	jmp    872c <_ZN8Executor7executeEv+0x4cdc>
    616b:	0f b6 94 24 80 00 00 	movzbl 0x80(%rsp),%edx
    6172:	00 
    6173:	4c 89 f7             	mov    %r14,%rdi
    6176:	e8 95 c8 ff ff       	call   2a10 <_ZN3CPU4adc8Ehh>
    617b:	8b 4c 24 30          	mov    0x30(%rsp),%ecx
    617f:	48 01 4c 24 10       	add    %rcx,0x10(%rsp)
    6184:	88 84 24 b0 00 00 00 	mov    %al,0xb0(%rsp)
    618b:	48 8b 4c 24 58       	mov    0x58(%rsp),%rcx
    6190:	c6 01 00             	movb   $0x0,(%rcx)
    6193:	48 8b bc 24 a8 00 00 	mov    0xa8(%rsp),%rdi
    619a:	00 
    619b:	48 85 ff             	test   %rdi,%rdi
    619e:	74 12                	je     61b2 <_ZN8Executor7executeEv+0x2762>
    61a0:	48 8b 8c 24 b8 00 00 	mov    0xb8(%rsp),%rcx
    61a7:	00 
    61a8:	48 85 c9             	test   %rcx,%rcx
    61ab:	74 05                	je     61b2 <_ZN8Executor7executeEv+0x2762>
    61ad:	0f b6 f0             	movzbl %al,%esi
    61b0:	ff d1                	call   *%rcx
    61b2:	48 8b 84 24 90 00 00 	mov    0x90(%rsp),%rax
    61b9:	00 
    61ba:	48 85 c0             	test   %rax,%rax
    61bd:	74 0a                	je     61c9 <_ZN8Executor7executeEv+0x2779>
    61bf:	0f b6 8c 24 98 00 00 	movzbl 0x98(%rsp),%ecx
    61c6:	00 
    61c7:	88 08                	mov    %cl,(%rax)
    61c9:	48 8b 7c 24 78       	mov    0x78(%rsp),%rdi
    61ce:	48 85 ff             	test   %rdi,%rdi
    61d1:	0f 84 d9 d8 ff ff    	je     3ab0 <_ZN8Executor7executeEv+0x60>
    61d7:	48 8b 84 24 88 00 00 	mov    0x88(%rsp),%rax
    61de:	00 
    61df:	48 85 c0             	test   %rax,%rax
    61e2:	0f 84 c8 d8 ff ff    	je     3ab0 <_ZN8Executor7executeEv+0x60>
    61e8:	0f b6 b4 24 80 00 00 	movzbl 0x80(%rsp),%esi
    61ef:	00 
    61f0:	ff d0                	call   *%rax
    61f2:	e9 b9 d8 ff ff       	jmp    3ab0 <_ZN8Executor7executeEv+0x60>
    61f7:	0f b6 94 24 80 00 00 	movzbl 0x80(%rsp),%edx
    61fe:	00 
    61ff:	4c 89 f7             	mov    %r14,%rdi
    6202:	e8 19 d0 ff ff       	call   3220 <_ZN3CPU4xor8Ehh>
    6207:	8b 4c 24 30          	mov    0x30(%rsp),%ecx
    620b:	48 01 4c 24 10       	add    %rcx,0x10(%rsp)
    6210:	88 84 24 b0 00 00 00 	mov    %al,0xb0(%rsp)
    6217:	48 8b 4c 24 58       	mov    0x58(%rsp),%rcx
    621c:	c6 01 00             	movb   $0x0,(%rcx)
    621f:	48 8b bc 24 a8 00 00 	mov    0xa8(%rsp),%rdi
    6226:	00 
    6227:	48 85 ff             	test   %rdi,%rdi
    622a:	74 12                	je     623e <_ZN8Executor7executeEv+0x27ee>
    622c:	48 8b 8c 24 b8 00 00 	mov    0xb8(%rsp),%rcx
    6233:	00 
    6234:	48 85 c9             	test   %rcx,%rcx
    6237:	74 05                	je     623e <_ZN8Executor7executeEv+0x27ee>
    6239:	0f b6 f0             	movzbl %al,%esi
    623c:	ff d1                	call   *%rcx
    623e:	48 8b 84 24 90 00 00 	mov    0x90(%rsp),%rax
    6245:	00 
    6246:	48 85 c0             	test   %rax,%rax
    6249:	74 0a                	je     6255 <_ZN8Executor7executeEv+0x2805>
    624b:	0f b6 8c 24 98 00 00 	movzbl 0x98(%rsp),%ecx
    6252:	00 
    6253:	88 08                	mov    %cl,(%rax)
    6255:	48 8b 7c 24 78       	mov    0x78(%rsp),%rdi
    625a:	48 85 ff             	test   %rdi,%rdi
    625d:	0f 84 4d d8 ff ff    	je     3ab0 <_ZN8Executor7executeEv+0x60>
    6263:	48 8b 84 24 88 00 00 	mov    0x88(%rsp),%rax
    626a:	00 
    626b:	48 85 c0             	test   %rax,%rax
    626e:	0f 84 3c d8 ff ff    	je     3ab0 <_ZN8Executor7executeEv+0x60>
    6274:	0f b6 b4 24 80 00 00 	movzbl 0x80(%rsp),%esi
    627b:	00 
    627c:	ff d0                	call   *%rax
    627e:	e9 2d d8 ff ff       	jmp    3ab0 <_ZN8Executor7executeEv+0x60>
    6283:	e8 a8 c4 00 00       	call   12730 <_Z11null_getterj>
    6288:	4c 89 ef             	mov    %r13,%rdi
    628b:	89 44 24 18          	mov    %eax,0x18(%rsp)
    628f:	89 c6                	mov    %eax,%esi
    6291:	e8 8a c4 00 00       	call   12720 <_Z15grh_null_setterPjj>
    6296:	0f b6 ac 24 90 00 00 	movzbl 0x90(%rsp),%ebp
    629d:	00 
    629e:	40 84 ed             	test   %bpl,%bpl
    62a1:	40 88 6c 24 20       	mov    %bpl,0x20(%rsp)
    62a6:	0f 84 af 19 00 00    	je     7c5b <_ZN8Executor7executeEv+0x420b>
    62ac:	8b 44 24 7c          	mov    0x7c(%rsp),%eax
    62b0:	80 bc 24 91 00 00 00 	cmpb   $0x0,0x91(%rsp)
    62b7:	00 
    62b8:	0f 84 d8 24 00 00    	je     8796 <_ZN8Executor7executeEv+0x4d46>
    62be:	8b 8c 24 80 00 00 00 	mov    0x80(%rsp),%ecx
    62c5:	41 03 44 8e 20       	add    0x20(%r14,%rcx,4),%eax
    62ca:	89 c1                	mov    %eax,%ecx
    62cc:	e9 f1 24 00 00       	jmp    87c2 <_ZN8Executor7executeEv+0x4d72>
    62d1:	0f b6 b4 24 80 00 00 	movzbl 0x80(%rsp),%esi
    62d8:	00 
    62d9:	0f b6 94 24 b0 00 00 	movzbl 0xb0(%rsp),%edx
    62e0:	00 
    62e1:	4c 89 f7             	mov    %r14,%rdi
    62e4:	e8 07 cf ff ff       	call   31f0 <_ZN3CPU4sub8Ehh>
    62e9:	88 84 24 80 00 00 00 	mov    %al,0x80(%rsp)
    62f0:	8b 44 24 30          	mov    0x30(%rsp),%eax
    62f4:	48 01 44 24 10       	add    %rax,0x10(%rsp)
    62f9:	48 8b 44 24 58       	mov    0x58(%rsp),%rax
    62fe:	c6 00 00             	movb   $0x0,(%rax)
    6301:	48 8b bc 24 a8 00 00 	mov    0xa8(%rsp),%rdi
    6308:	00 
    6309:	48 85 ff             	test   %rdi,%rdi
    630c:	74 17                	je     6325 <_ZN8Executor7executeEv+0x28d5>
    630e:	48 8b 84 24 b8 00 00 	mov    0xb8(%rsp),%rax
    6315:	00 
    6316:	48 85 c0             	test   %rax,%rax
    6319:	74 0a                	je     6325 <_ZN8Executor7executeEv+0x28d5>
    631b:	0f b6 b4 24 b0 00 00 	movzbl 0xb0(%rsp),%esi
    6322:	00 
    6323:	ff d0                	call   *%rax
    6325:	48 8b 84 24 90 00 00 	mov    0x90(%rsp),%rax
    632c:	00 
    632d:	48 85 c0             	test   %rax,%rax
    6330:	74 0a                	je     633c <_ZN8Executor7executeEv+0x28ec>
    6332:	0f b6 8c 24 98 00 00 	movzbl 0x98(%rsp),%ecx
    6339:	00 
    633a:	88 08                	mov    %cl,(%rax)
    633c:	48 8b 7c 24 78       	mov    0x78(%rsp),%rdi
    6341:	48 85 ff             	test   %rdi,%rdi
    6344:	0f 84 66 d7 ff ff    	je     3ab0 <_ZN8Executor7executeEv+0x60>
    634a:	48 8b 84 24 88 00 00 	mov    0x88(%rsp),%rax
    6351:	00 
    6352:	48 85 c0             	test   %rax,%rax
    6355:	0f 84 55 d7 ff ff    	je     3ab0 <_ZN8Executor7executeEv+0x60>
    635b:	0f b6 b4 24 80 00 00 	movzbl 0x80(%rsp),%esi
    6362:	00 
    6363:	ff d0                	call   *%rax
    6365:	e9 46 d7 ff ff       	jmp    3ab0 <_ZN8Executor7executeEv+0x60>
    636a:	8b 54 0a 01          	mov    0x1(%rdx,%rcx,1),%edx
    636e:	41 8b 76 20          	mov    0x20(%r14),%esi
    6372:	4c 89 f7             	mov    %r14,%rdi
    6375:	e8 96 ce ff ff       	call   3210 <_ZN3CPU5sub32Ejj>
    637a:	41 89 46 20          	mov    %eax,0x20(%r14)
    637e:	b8 05 00 00 00       	mov    $0x5,%eax
    6383:	48 01 44 24 10       	add    %rax,0x10(%rsp)
    6388:	e9 23 d7 ff ff       	jmp    3ab0 <_ZN8Executor7executeEv+0x60>
    638d:	0f b6 94 24 80 00 00 	movzbl 0x80(%rsp),%edx
    6394:	00 
    6395:	4c 89 f7             	mov    %r14,%rdi
    6398:	e8 d3 c6 ff ff       	call   2a70 <_ZN3CPU4and8Ehh>
    639d:	8b 4c 24 30          	mov    0x30(%rsp),%ecx
    63a1:	48 01 4c 24 10       	add    %rcx,0x10(%rsp)
    63a6:	88 84 24 b0 00 00 00 	mov    %al,0xb0(%rsp)
    63ad:	48 8b 4c 24 58       	mov    0x58(%rsp),%rcx
    63b2:	c6 01 00             	movb   $0x0,(%rcx)
    63b5:	48 8b bc 24 a8 00 00 	mov    0xa8(%rsp),%rdi
    63bc:	00 
    63bd:	48 85 ff             	test   %rdi,%rdi
    63c0:	74 12                	je     63d4 <_ZN8Executor7executeEv+0x2984>
    63c2:	48 8b 8c 24 b8 00 00 	mov    0xb8(%rsp),%rcx
    63c9:	00 
    63ca:	48 85 c9             	test   %rcx,%rcx
    63cd:	74 05                	je     63d4 <_ZN8Executor7executeEv+0x2984>
    63cf:	0f b6 f0             	movzbl %al,%esi
    63d2:	ff d1                	call   *%rcx
    63d4:	48 8b 84 24 90 00 00 	mov    0x90(%rsp),%rax
    63db:	00 
    63dc:	48 85 c0             	test   %rax,%rax
    63df:	74 0a                	je     63eb <_ZN8Executor7executeEv+0x299b>
    63e1:	0f b6 8c 24 98 00 00 	movzbl 0x98(%rsp),%ecx
    63e8:	00 
    63e9:	88 08                	mov    %cl,(%rax)
    63eb:	48 8b 7c 24 78       	mov    0x78(%rsp),%rdi
    63f0:	48 85 ff             	test   %rdi,%rdi
    63f3:	0f 84 b7 d6 ff ff    	je     3ab0 <_ZN8Executor7executeEv+0x60>
    63f9:	48 8b 84 24 88 00 00 	mov    0x88(%rsp),%rax
    6400:	00 
    6401:	48 85 c0             	test   %rax,%rax
    6404:	0f 84 a6 d6 ff ff    	je     3ab0 <_ZN8Executor7executeEv+0x60>
    640a:	0f b6 b4 24 80 00 00 	movzbl 0x80(%rsp),%esi
    6411:	00 
    6412:	ff d0                	call   *%rax
    6414:	e9 97 d6 ff ff       	jmp    3ab0 <_ZN8Executor7executeEv+0x60>
    6419:	e8 12 c3 00 00       	call   12730 <_Z11null_getterj>
    641e:	4c 89 ff             	mov    %r15,%rdi
    6421:	89 44 24 18          	mov    %eax,0x18(%rsp)
    6425:	89 c6                	mov    %eax,%esi
